
test_write_atmega2560:     file format elf32-avr


Disassembly of section .text:

00000000 <__vectors>:
   0:	0c 94 72 00 	jmp	0xe4	; 0xe4 <__ctors_end>
   4:	0c 94 86 00 	jmp	0x10c	; 0x10c <__bad_interrupt>
   8:	0c 94 86 00 	jmp	0x10c	; 0x10c <__bad_interrupt>
   c:	0c 94 86 00 	jmp	0x10c	; 0x10c <__bad_interrupt>
  10:	0c 94 86 00 	jmp	0x10c	; 0x10c <__bad_interrupt>
  14:	0c 94 86 00 	jmp	0x10c	; 0x10c <__bad_interrupt>
  18:	0c 94 86 00 	jmp	0x10c	; 0x10c <__bad_interrupt>
  1c:	0c 94 86 00 	jmp	0x10c	; 0x10c <__bad_interrupt>
  20:	0c 94 86 00 	jmp	0x10c	; 0x10c <__bad_interrupt>
  24:	0c 94 86 00 	jmp	0x10c	; 0x10c <__bad_interrupt>
  28:	0c 94 86 00 	jmp	0x10c	; 0x10c <__bad_interrupt>
  2c:	0c 94 86 00 	jmp	0x10c	; 0x10c <__bad_interrupt>
  30:	0c 94 86 00 	jmp	0x10c	; 0x10c <__bad_interrupt>
  34:	0c 94 86 00 	jmp	0x10c	; 0x10c <__bad_interrupt>
  38:	0c 94 86 00 	jmp	0x10c	; 0x10c <__bad_interrupt>
  3c:	0c 94 86 00 	jmp	0x10c	; 0x10c <__bad_interrupt>
  40:	0c 94 86 00 	jmp	0x10c	; 0x10c <__bad_interrupt>
  44:	0c 94 86 00 	jmp	0x10c	; 0x10c <__bad_interrupt>
  48:	0c 94 86 00 	jmp	0x10c	; 0x10c <__bad_interrupt>
  4c:	0c 94 86 00 	jmp	0x10c	; 0x10c <__bad_interrupt>
  50:	0c 94 86 00 	jmp	0x10c	; 0x10c <__bad_interrupt>
  54:	0c 94 86 00 	jmp	0x10c	; 0x10c <__bad_interrupt>
  58:	0c 94 86 00 	jmp	0x10c	; 0x10c <__bad_interrupt>
  5c:	0c 94 86 00 	jmp	0x10c	; 0x10c <__bad_interrupt>
  60:	0c 94 86 00 	jmp	0x10c	; 0x10c <__bad_interrupt>
  64:	0c 94 86 00 	jmp	0x10c	; 0x10c <__bad_interrupt>
  68:	0c 94 86 00 	jmp	0x10c	; 0x10c <__bad_interrupt>
  6c:	0c 94 86 00 	jmp	0x10c	; 0x10c <__bad_interrupt>
  70:	0c 94 86 00 	jmp	0x10c	; 0x10c <__bad_interrupt>
  74:	0c 94 86 00 	jmp	0x10c	; 0x10c <__bad_interrupt>
  78:	0c 94 86 00 	jmp	0x10c	; 0x10c <__bad_interrupt>
  7c:	0c 94 86 00 	jmp	0x10c	; 0x10c <__bad_interrupt>
  80:	0c 94 86 00 	jmp	0x10c	; 0x10c <__bad_interrupt>
  84:	0c 94 86 00 	jmp	0x10c	; 0x10c <__bad_interrupt>
  88:	0c 94 86 00 	jmp	0x10c	; 0x10c <__bad_interrupt>
  8c:	0c 94 86 00 	jmp	0x10c	; 0x10c <__bad_interrupt>
  90:	0c 94 86 00 	jmp	0x10c	; 0x10c <__bad_interrupt>
  94:	0c 94 86 00 	jmp	0x10c	; 0x10c <__bad_interrupt>
  98:	0c 94 86 00 	jmp	0x10c	; 0x10c <__bad_interrupt>
  9c:	0c 94 86 00 	jmp	0x10c	; 0x10c <__bad_interrupt>
  a0:	0c 94 86 00 	jmp	0x10c	; 0x10c <__bad_interrupt>
  a4:	0c 94 86 00 	jmp	0x10c	; 0x10c <__bad_interrupt>
  a8:	0c 94 86 00 	jmp	0x10c	; 0x10c <__bad_interrupt>
  ac:	0c 94 86 00 	jmp	0x10c	; 0x10c <__bad_interrupt>
  b0:	0c 94 86 00 	jmp	0x10c	; 0x10c <__bad_interrupt>
  b4:	0c 94 86 00 	jmp	0x10c	; 0x10c <__bad_interrupt>
  b8:	0c 94 86 00 	jmp	0x10c	; 0x10c <__bad_interrupt>
  bc:	0c 94 86 00 	jmp	0x10c	; 0x10c <__bad_interrupt>
  c0:	0c 94 86 00 	jmp	0x10c	; 0x10c <__bad_interrupt>
  c4:	0c 94 86 00 	jmp	0x10c	; 0x10c <__bad_interrupt>
  c8:	0c 94 86 00 	jmp	0x10c	; 0x10c <__bad_interrupt>
  cc:	0c 94 86 00 	jmp	0x10c	; 0x10c <__bad_interrupt>
  d0:	0c 94 86 00 	jmp	0x10c	; 0x10c <__bad_interrupt>
  d4:	0c 94 86 00 	jmp	0x10c	; 0x10c <__bad_interrupt>
  d8:	0c 94 86 00 	jmp	0x10c	; 0x10c <__bad_interrupt>
  dc:	0c 94 86 00 	jmp	0x10c	; 0x10c <__bad_interrupt>
  e0:	0c 94 86 00 	jmp	0x10c	; 0x10c <__bad_interrupt>

000000e4 <__ctors_end>:
  e4:	11 24       	eor	r1, r1
  e6:	1f be       	out	0x3f, r1	; 63
  e8:	cf ef       	ldi	r28, 0xFF	; 255
  ea:	d1 e2       	ldi	r29, 0x21	; 33
  ec:	de bf       	out	0x3e, r29	; 62
  ee:	cd bf       	out	0x3d, r28	; 61
  f0:	00 e0       	ldi	r16, 0x00	; 0
  f2:	0c bf       	out	0x3c, r16	; 60

000000f4 <__do_clear_bss>:
  f4:	12 e0       	ldi	r17, 0x02	; 2
  f6:	a0 e0       	ldi	r26, 0x00	; 0
  f8:	b2 e0       	ldi	r27, 0x02	; 2
  fa:	01 c0       	rjmp	.+2      	; 0xfe <.do_clear_bss_start>

000000fc <.do_clear_bss_loop>:
  fc:	1d 92       	st	X+, r1

000000fe <.do_clear_bss_start>:
  fe:	a1 30       	cpi	r26, 0x01	; 1
 100:	b1 07       	cpc	r27, r17
 102:	e1 f7       	brne	.-8      	; 0xfc <.do_clear_bss_loop>
 104:	0e 94 ab 00 	call	0x156	; 0x156 <main>
 108:	0c 94 d2 00 	jmp	0x1a4	; 0x1a4 <_exit>

0000010c <__bad_interrupt>:
 10c:	0c 94 00 00 	jmp	0	; 0x0 <__vectors>

00000110 <avr_end>:
 110:	84 e0       	ldi	r24, 0x04	; 4
 112:	0e 94 95 00 	call	0x12a	; 0x12a <write_byte>
 116:	ff cf       	rjmp	.-2      	; 0x116 <avr_end+0x6>

00000118 <serial_init>:
 118:	10 92 c5 00 	sts	0x00C5, r1
 11c:	89 e1       	ldi	r24, 0x19	; 25
 11e:	80 93 c4 00 	sts	0x00C4, r24
 122:	88 e1       	ldi	r24, 0x18	; 24
 124:	80 93 c1 00 	sts	0x00C1, r24
 128:	08 95       	ret

0000012a <write_byte>:
 12a:	90 91 00 02 	lds	r25, 0x0200
 12e:	91 11       	cpse	r25, r1
 130:	0b c0       	rjmp	.+22     	; 0x148 <write_byte+0x1e>
 132:	10 92 c5 00 	sts	0x00C5, r1
 136:	99 e1       	ldi	r25, 0x19	; 25
 138:	90 93 c4 00 	sts	0x00C4, r25
 13c:	98 e1       	ldi	r25, 0x18	; 24
 13e:	90 93 c1 00 	sts	0x00C1, r25
 142:	91 e0       	ldi	r25, 0x01	; 1
 144:	90 93 00 02 	sts	0x0200, r25
 148:	90 91 c0 00 	lds	r25, 0x00C0
 14c:	95 ff       	sbrs	r25, 5
 14e:	fc cf       	rjmp	.-8      	; 0x148 <write_byte+0x1e>
 150:	80 93 c6 00 	sts	0x00C6, r24
 154:	08 95       	ret

00000156 <main>:
 156:	88 e6       	ldi	r24, 0x68	; 104
 158:	0e 94 95 00 	call	0x12a	; 0x12a <write_byte>
 15c:	85 e6       	ldi	r24, 0x65	; 101
 15e:	0e 94 95 00 	call	0x12a	; 0x12a <write_byte>
 162:	8c e6       	ldi	r24, 0x6C	; 108
 164:	0e 94 95 00 	call	0x12a	; 0x12a <write_byte>
 168:	8c e6       	ldi	r24, 0x6C	; 108
 16a:	0e 94 95 00 	call	0x12a	; 0x12a <write_byte>
 16e:	8f e6       	ldi	r24, 0x6F	; 111
 170:	0e 94 95 00 	call	0x12a	; 0x12a <write_byte>
 174:	80 e2       	ldi	r24, 0x20	; 32
 176:	0e 94 95 00 	call	0x12a	; 0x12a <write_byte>
 17a:	87 e7       	ldi	r24, 0x77	; 119
 17c:	0e 94 95 00 	call	0x12a	; 0x12a <write_byte>
 180:	8f e6       	ldi	r24, 0x6F	; 111
 182:	0e 94 95 00 	call	0x12a	; 0x12a <write_byte>
 186:	82 e7       	ldi	r24, 0x72	; 114
 188:	0e 94 95 00 	call	0x12a	; 0x12a <write_byte>
 18c:	8c e6       	ldi	r24, 0x6C	; 108
 18e:	0e 94 95 00 	call	0x12a	; 0x12a <write_byte>
 192:	84 e6       	ldi	r24, 0x64	; 100
 194:	0e 94 95 00 	call	0x12a	; 0x12a <write_byte>
 198:	81 e2       	ldi	r24, 0x21	; 33
 19a:	0e 94 95 00 	call	0x12a	; 0x12a <write_byte>
 19e:	80 e0       	ldi	r24, 0x00	; 0
 1a0:	90 e0       	ldi	r25, 0x00	; 0
 1a2:	08 95       	ret

000001a4 <_exit>:
 1a4:	f8 94       	cli

000001a6 <__stop_program>:
 1a6:	ff cf       	rjmp	.-2      	; 0x1a6 <__stop_program>

Disassembly of section .bss:

00800200 <__bss_start>:
  800200:	00 54       	Address 0x00800200 is out of bounds.
.word	0xffff	; ????

Disassembly of section .stab:

00000000 <_end-0x800201>:
       0:	01 00       	.word	0x0001	; ????
       2:	00 00       	nop
       4:	00 00       	nop
       6:	8c 01       	movw	r16, r24
       8:	d7 0d       	add	r29, r7
       a:	00 00       	nop
       c:	01 00       	.word	0x0001	; ????
       e:	00 00       	nop
      10:	64 00       	.word	0x0064	; ????
      12:	00 00       	nop
      14:	0c 01       	movw	r0, r24
      16:	00 00       	nop
      18:	11 00       	.word	0x0011	; ????
      1a:	00 00       	nop
      1c:	80 00       	.word	0x0080	; ????
      1e:	00 00       	nop
      20:	00 00       	nop
      22:	00 00       	nop
      24:	1b 00       	.word	0x001b	; ????
      26:	00 00       	nop
      28:	24 00       	.word	0x0024	; ????
      2a:	33 00       	.word	0x0033	; ????
      2c:	00 00       	nop
      2e:	00 00       	nop
      30:	28 00       	.word	0x0028	; ????
      32:	00 00       	nop
      34:	84 00       	.word	0x0084	; ????
      36:	00 00       	nop
      38:	00 00       	nop
      3a:	00 00       	nop
      3c:	00 00       	nop
      3e:	00 00       	nop
      40:	44 00       	.word	0x0044	; ????
      42:	34 00       	.word	0x0034	; ????
      44:	00 00       	nop
      46:	00 00       	nop
      48:	00 00       	nop
      4a:	00 00       	nop
      4c:	44 00       	.word	0x0044	; ????
      4e:	35 00       	.word	0x0035	; ????
      50:	04 00       	.word	0x0004	; ????
      52:	00 00       	nop
      54:	00 00       	nop
      56:	00 00       	nop
      58:	44 00       	.word	0x0044	; ????
      5a:	36 00       	.word	0x0036	; ????
      5c:	08 00       	.word	0x0008	; ????
      5e:	00 00       	nop
      60:	00 00       	nop
      62:	00 00       	nop
      64:	44 00       	.word	0x0044	; ????
      66:	37 00       	.word	0x0037	; ????
      68:	0c 00       	.word	0x000c	; ????
      6a:	00 00       	nop
      6c:	00 00       	nop
      6e:	00 00       	nop
      70:	44 00       	.word	0x0044	; ????
      72:	38 00       	.word	0x0038	; ????
      74:	10 00       	.word	0x0010	; ????
      76:	00 00       	nop
      78:	00 00       	nop
      7a:	00 00       	nop
      7c:	44 00       	.word	0x0044	; ????
      7e:	39 00       	.word	0x0039	; ????
      80:	14 00       	.word	0x0014	; ????
      82:	00 00       	nop
      84:	00 00       	nop
      86:	00 00       	nop
      88:	44 00       	.word	0x0044	; ????
      8a:	3a 00       	.word	0x003a	; ????
      8c:	18 00       	.word	0x0018	; ????
      8e:	00 00       	nop
      90:	00 00       	nop
      92:	00 00       	nop
      94:	44 00       	.word	0x0044	; ????
      96:	3b 00       	.word	0x003b	; ????
      98:	1c 00       	.word	0x001c	; ????
      9a:	00 00       	nop
      9c:	00 00       	nop
      9e:	00 00       	nop
      a0:	44 00       	.word	0x0044	; ????
      a2:	3c 00       	.word	0x003c	; ????
      a4:	20 00       	.word	0x0020	; ????
      a6:	00 00       	nop
      a8:	00 00       	nop
      aa:	00 00       	nop
      ac:	44 00       	.word	0x0044	; ????
      ae:	3d 00       	.word	0x003d	; ????
      b0:	24 00       	.word	0x0024	; ????
      b2:	00 00       	nop
      b4:	00 00       	nop
      b6:	00 00       	nop
      b8:	44 00       	.word	0x0044	; ????
      ba:	3e 00       	.word	0x003e	; ????
      bc:	28 00       	.word	0x0028	; ????
      be:	00 00       	nop
      c0:	00 00       	nop
      c2:	00 00       	nop
      c4:	44 00       	.word	0x0044	; ????
      c6:	3f 00       	.word	0x003f	; ????
      c8:	2c 00       	.word	0x002c	; ????
      ca:	00 00       	nop
      cc:	00 00       	nop
      ce:	00 00       	nop
      d0:	44 00       	.word	0x0044	; ????
      d2:	40 00       	.word	0x0040	; ????
      d4:	30 00       	.word	0x0030	; ????
      d6:	00 00       	nop
      d8:	00 00       	nop
      da:	00 00       	nop
      dc:	44 00       	.word	0x0044	; ????
      de:	41 00       	.word	0x0041	; ????
      e0:	34 00       	.word	0x0034	; ????
      e2:	00 00       	nop
      e4:	00 00       	nop
      e6:	00 00       	nop
      e8:	44 00       	.word	0x0044	; ????
      ea:	42 00       	.word	0x0042	; ????
      ec:	38 00       	.word	0x0038	; ????
      ee:	00 00       	nop
      f0:	00 00       	nop
      f2:	00 00       	nop
      f4:	44 00       	.word	0x0044	; ????
      f6:	43 00       	.word	0x0043	; ????
      f8:	3c 00       	.word	0x003c	; ????
      fa:	00 00       	nop
      fc:	00 00       	nop
      fe:	00 00       	nop
     100:	44 00       	.word	0x0044	; ????
     102:	44 00       	.word	0x0044	; ????
     104:	40 00       	.word	0x0040	; ????
     106:	00 00       	nop
     108:	00 00       	nop
     10a:	00 00       	nop
     10c:	44 00       	.word	0x0044	; ????
     10e:	45 00       	.word	0x0045	; ????
     110:	44 00       	.word	0x0044	; ????
     112:	00 00       	nop
     114:	00 00       	nop
     116:	00 00       	nop
     118:	44 00       	.word	0x0044	; ????
     11a:	46 00       	.word	0x0046	; ????
     11c:	48 00       	.word	0x0048	; ????
     11e:	00 00       	nop
     120:	00 00       	nop
     122:	00 00       	nop
     124:	44 00       	.word	0x0044	; ????
     126:	47 00       	.word	0x0047	; ????
     128:	4c 00       	.word	0x004c	; ????
     12a:	00 00       	nop
     12c:	00 00       	nop
     12e:	00 00       	nop
     130:	44 00       	.word	0x0044	; ????
     132:	48 00       	.word	0x0048	; ????
     134:	50 00       	.word	0x0050	; ????
     136:	00 00       	nop
     138:	00 00       	nop
     13a:	00 00       	nop
     13c:	44 00       	.word	0x0044	; ????
     13e:	49 00       	.word	0x0049	; ????
     140:	54 00       	.word	0x0054	; ????
     142:	00 00       	nop
     144:	00 00       	nop
     146:	00 00       	nop
     148:	44 00       	.word	0x0044	; ????
     14a:	4a 00       	.word	0x004a	; ????
     14c:	58 00       	.word	0x0058	; ????
     14e:	00 00       	nop
     150:	00 00       	nop
     152:	00 00       	nop
     154:	44 00       	.word	0x0044	; ????
     156:	4b 00       	.word	0x004b	; ????
     158:	5c 00       	.word	0x005c	; ????
     15a:	00 00       	nop
     15c:	00 00       	nop
     15e:	00 00       	nop
     160:	44 00       	.word	0x0044	; ????
     162:	4c 00       	.word	0x004c	; ????
     164:	60 00       	.word	0x0060	; ????
     166:	00 00       	nop
     168:	00 00       	nop
     16a:	00 00       	nop
     16c:	44 00       	.word	0x0044	; ????
     16e:	4d 00       	.word	0x004d	; ????
     170:	64 00       	.word	0x0064	; ????
     172:	00 00       	nop
     174:	00 00       	nop
     176:	00 00       	nop
     178:	44 00       	.word	0x0044	; ????
     17a:	4e 00       	.word	0x004e	; ????
     17c:	68 00       	.word	0x0068	; ????
     17e:	00 00       	nop
     180:	00 00       	nop
     182:	00 00       	nop
     184:	44 00       	.word	0x0044	; ????
     186:	4f 00       	.word	0x004f	; ????
     188:	6c 00       	.word	0x006c	; ????
     18a:	00 00       	nop
     18c:	00 00       	nop
     18e:	00 00       	nop
     190:	44 00       	.word	0x0044	; ????
     192:	50 00       	.word	0x0050	; ????
     194:	70 00       	.word	0x0070	; ????
     196:	00 00       	nop
     198:	00 00       	nop
     19a:	00 00       	nop
     19c:	44 00       	.word	0x0044	; ????
     19e:	51 00       	.word	0x0051	; ????
     1a0:	74 00       	.word	0x0074	; ????
     1a2:	00 00       	nop
     1a4:	00 00       	nop
     1a6:	00 00       	nop
     1a8:	44 00       	.word	0x0044	; ????
     1aa:	52 00       	.word	0x0052	; ????
     1ac:	78 00       	.word	0x0078	; ????
     1ae:	00 00       	nop
     1b0:	00 00       	nop
     1b2:	00 00       	nop
     1b4:	44 00       	.word	0x0044	; ????
     1b6:	53 00       	.word	0x0053	; ????
     1b8:	7c 00       	.word	0x007c	; ????
     1ba:	00 00       	nop
     1bc:	00 00       	nop
     1be:	00 00       	nop
     1c0:	44 00       	.word	0x0044	; ????
     1c2:	54 00       	.word	0x0054	; ????
     1c4:	80 00       	.word	0x0080	; ????
     1c6:	00 00       	nop
     1c8:	00 00       	nop
     1ca:	00 00       	nop
     1cc:	44 00       	.word	0x0044	; ????
     1ce:	55 00       	.word	0x0055	; ????
     1d0:	84 00       	.word	0x0084	; ????
     1d2:	00 00       	nop
     1d4:	00 00       	nop
     1d6:	00 00       	nop
     1d8:	44 00       	.word	0x0044	; ????
     1da:	56 00       	.word	0x0056	; ????
     1dc:	88 00       	.word	0x0088	; ????
     1de:	00 00       	nop
     1e0:	00 00       	nop
     1e2:	00 00       	nop
     1e4:	44 00       	.word	0x0044	; ????
     1e6:	57 00       	.word	0x0057	; ????
     1e8:	8c 00       	.word	0x008c	; ????
     1ea:	00 00       	nop
     1ec:	00 00       	nop
     1ee:	00 00       	nop
     1f0:	44 00       	.word	0x0044	; ????
     1f2:	58 00       	.word	0x0058	; ????
     1f4:	90 00       	.word	0x0090	; ????
     1f6:	00 00       	nop
     1f8:	00 00       	nop
     1fa:	00 00       	nop
     1fc:	44 00       	.word	0x0044	; ????
     1fe:	59 00       	.word	0x0059	; ????
     200:	94 00       	.word	0x0094	; ????
     202:	00 00       	nop
     204:	00 00       	nop
     206:	00 00       	nop
     208:	44 00       	.word	0x0044	; ????
     20a:	5a 00       	.word	0x005a	; ????
     20c:	98 00       	.word	0x0098	; ????
     20e:	00 00       	nop
     210:	00 00       	nop
     212:	00 00       	nop
     214:	44 00       	.word	0x0044	; ????
     216:	5b 00       	.word	0x005b	; ????
     218:	9c 00       	.word	0x009c	; ????
     21a:	00 00       	nop
     21c:	00 00       	nop
     21e:	00 00       	nop
     220:	44 00       	.word	0x0044	; ????
     222:	5c 00       	.word	0x005c	; ????
     224:	a0 00       	.word	0x00a0	; ????
     226:	00 00       	nop
     228:	00 00       	nop
     22a:	00 00       	nop
     22c:	44 00       	.word	0x0044	; ????
     22e:	5d 00       	.word	0x005d	; ????
     230:	a4 00       	.word	0x00a4	; ????
     232:	00 00       	nop
     234:	00 00       	nop
     236:	00 00       	nop
     238:	44 00       	.word	0x0044	; ????
     23a:	5e 00       	.word	0x005e	; ????
     23c:	a8 00       	.word	0x00a8	; ????
     23e:	00 00       	nop
     240:	00 00       	nop
     242:	00 00       	nop
     244:	44 00       	.word	0x0044	; ????
     246:	5f 00       	.word	0x005f	; ????
     248:	ac 00       	.word	0x00ac	; ????
     24a:	00 00       	nop
     24c:	00 00       	nop
     24e:	00 00       	nop
     250:	44 00       	.word	0x0044	; ????
     252:	60 00       	.word	0x0060	; ????
     254:	b0 00       	.word	0x00b0	; ????
     256:	00 00       	nop
     258:	00 00       	nop
     25a:	00 00       	nop
     25c:	44 00       	.word	0x0044	; ????
     25e:	61 00       	.word	0x0061	; ????
     260:	b4 00       	.word	0x00b4	; ????
     262:	00 00       	nop
     264:	00 00       	nop
     266:	00 00       	nop
     268:	44 00       	.word	0x0044	; ????
     26a:	62 00       	.word	0x0062	; ????
     26c:	b8 00       	.word	0x00b8	; ????
     26e:	00 00       	nop
     270:	00 00       	nop
     272:	00 00       	nop
     274:	44 00       	.word	0x0044	; ????
     276:	63 00       	.word	0x0063	; ????
     278:	bc 00       	.word	0x00bc	; ????
     27a:	00 00       	nop
     27c:	00 00       	nop
     27e:	00 00       	nop
     280:	44 00       	.word	0x0044	; ????
     282:	64 00       	.word	0x0064	; ????
     284:	c0 00       	.word	0x00c0	; ????
     286:	00 00       	nop
     288:	00 00       	nop
     28a:	00 00       	nop
     28c:	44 00       	.word	0x0044	; ????
     28e:	65 00       	.word	0x0065	; ????
     290:	c4 00       	.word	0x00c4	; ????
     292:	00 00       	nop
     294:	00 00       	nop
     296:	00 00       	nop
     298:	44 00       	.word	0x0044	; ????
     29a:	66 00       	.word	0x0066	; ????
     29c:	c8 00       	.word	0x00c8	; ????
     29e:	00 00       	nop
     2a0:	00 00       	nop
     2a2:	00 00       	nop
     2a4:	44 00       	.word	0x0044	; ????
     2a6:	67 00       	.word	0x0067	; ????
     2a8:	cc 00       	.word	0x00cc	; ????
     2aa:	00 00       	nop
     2ac:	00 00       	nop
     2ae:	00 00       	nop
     2b0:	44 00       	.word	0x0044	; ????
     2b2:	68 00       	.word	0x0068	; ????
     2b4:	d0 00       	.word	0x00d0	; ????
     2b6:	00 00       	nop
     2b8:	00 00       	nop
     2ba:	00 00       	nop
     2bc:	44 00       	.word	0x0044	; ????
     2be:	69 00       	.word	0x0069	; ????
     2c0:	d4 00       	.word	0x00d4	; ????
     2c2:	00 00       	nop
     2c4:	00 00       	nop
     2c6:	00 00       	nop
     2c8:	44 00       	.word	0x0044	; ????
     2ca:	6a 00       	.word	0x006a	; ????
     2cc:	d8 00       	.word	0x00d8	; ????
     2ce:	00 00       	nop
     2d0:	00 00       	nop
     2d2:	00 00       	nop
     2d4:	44 00       	.word	0x0044	; ????
     2d6:	6b 00       	.word	0x006b	; ????
     2d8:	dc 00       	.word	0x00dc	; ????
     2da:	00 00       	nop
     2dc:	00 00       	nop
     2de:	00 00       	nop
     2e0:	44 00       	.word	0x0044	; ????
     2e2:	6c 00       	.word	0x006c	; ????
     2e4:	e0 00       	.word	0x00e0	; ????
     2e6:	00 00       	nop
     2e8:	00 00       	nop
     2ea:	00 00       	nop
     2ec:	44 00       	.word	0x0044	; ????
     2ee:	6d 00       	.word	0x006d	; ????
     2f0:	e4 00       	.word	0x00e4	; ????
     2f2:	00 00       	nop
     2f4:	00 00       	nop
     2f6:	00 00       	nop
     2f8:	44 00       	.word	0x0044	; ????
     2fa:	6e 00       	.word	0x006e	; ????
     2fc:	e4 00       	.word	0x00e4	; ????
     2fe:	00 00       	nop
     300:	00 00       	nop
     302:	00 00       	nop
     304:	44 00       	.word	0x0044	; ????
     306:	6f 00       	.word	0x006f	; ????
     308:	e4 00       	.word	0x00e4	; ????
     30a:	00 00       	nop
     30c:	00 00       	nop
     30e:	00 00       	nop
     310:	44 00       	.word	0x0044	; ????
     312:	70 00       	.word	0x0070	; ????
     314:	e4 00       	.word	0x00e4	; ????
     316:	00 00       	nop
     318:	00 00       	nop
     31a:	00 00       	nop
     31c:	44 00       	.word	0x0044	; ????
     31e:	71 00       	.word	0x0071	; ????
     320:	e4 00       	.word	0x00e4	; ????
     322:	00 00       	nop
     324:	00 00       	nop
     326:	00 00       	nop
     328:	44 00       	.word	0x0044	; ????
     32a:	72 00       	.word	0x0072	; ????
     32c:	e4 00       	.word	0x00e4	; ????
     32e:	00 00       	nop
     330:	00 00       	nop
     332:	00 00       	nop
     334:	44 00       	.word	0x0044	; ????
     336:	73 00       	.word	0x0073	; ????
     338:	e4 00       	.word	0x00e4	; ????
     33a:	00 00       	nop
     33c:	00 00       	nop
     33e:	00 00       	nop
     340:	44 00       	.word	0x0044	; ????
     342:	74 00       	.word	0x0074	; ????
     344:	e4 00       	.word	0x00e4	; ????
     346:	00 00       	nop
     348:	00 00       	nop
     34a:	00 00       	nop
     34c:	44 00       	.word	0x0044	; ????
     34e:	75 00       	.word	0x0075	; ????
     350:	e4 00       	.word	0x00e4	; ????
     352:	00 00       	nop
     354:	00 00       	nop
     356:	00 00       	nop
     358:	44 00       	.word	0x0044	; ????
     35a:	76 00       	.word	0x0076	; ????
     35c:	e4 00       	.word	0x00e4	; ????
     35e:	00 00       	nop
     360:	00 00       	nop
     362:	00 00       	nop
     364:	44 00       	.word	0x0044	; ????
     366:	77 00       	.word	0x0077	; ????
     368:	e4 00       	.word	0x00e4	; ????
     36a:	00 00       	nop
     36c:	00 00       	nop
     36e:	00 00       	nop
     370:	44 00       	.word	0x0044	; ????
     372:	78 00       	.word	0x0078	; ????
     374:	e4 00       	.word	0x00e4	; ????
     376:	00 00       	nop
     378:	00 00       	nop
     37a:	00 00       	nop
     37c:	44 00       	.word	0x0044	; ????
     37e:	79 00       	.word	0x0079	; ????
     380:	e4 00       	.word	0x00e4	; ????
     382:	00 00       	nop
     384:	00 00       	nop
     386:	00 00       	nop
     388:	44 00       	.word	0x0044	; ????
     38a:	7a 00       	.word	0x007a	; ????
     38c:	e4 00       	.word	0x00e4	; ????
     38e:	00 00       	nop
     390:	00 00       	nop
     392:	00 00       	nop
     394:	44 00       	.word	0x0044	; ????
     396:	7b 00       	.word	0x007b	; ????
     398:	e4 00       	.word	0x00e4	; ????
     39a:	00 00       	nop
     39c:	00 00       	nop
     39e:	00 00       	nop
     3a0:	44 00       	.word	0x0044	; ????
     3a2:	7c 00       	.word	0x007c	; ????
     3a4:	e4 00       	.word	0x00e4	; ????
     3a6:	00 00       	nop
     3a8:	00 00       	nop
     3aa:	00 00       	nop
     3ac:	44 00       	.word	0x0044	; ????
     3ae:	7d 00       	.word	0x007d	; ????
     3b0:	e4 00       	.word	0x00e4	; ????
     3b2:	00 00       	nop
     3b4:	00 00       	nop
     3b6:	00 00       	nop
     3b8:	44 00       	.word	0x0044	; ????
     3ba:	7e 00       	.word	0x007e	; ????
     3bc:	e4 00       	.word	0x00e4	; ????
     3be:	00 00       	nop
     3c0:	00 00       	nop
     3c2:	00 00       	nop
     3c4:	44 00       	.word	0x0044	; ????
     3c6:	7f 00       	.word	0x007f	; ????
     3c8:	e4 00       	.word	0x00e4	; ????
     3ca:	00 00       	nop
     3cc:	00 00       	nop
     3ce:	00 00       	nop
     3d0:	44 00       	.word	0x0044	; ????
     3d2:	80 00       	.word	0x0080	; ????
     3d4:	e4 00       	.word	0x00e4	; ????
     3d6:	00 00       	nop
     3d8:	00 00       	nop
     3da:	00 00       	nop
     3dc:	44 00       	.word	0x0044	; ????
     3de:	81 00       	.word	0x0081	; ????
     3e0:	e4 00       	.word	0x00e4	; ????
     3e2:	00 00       	nop
     3e4:	00 00       	nop
     3e6:	00 00       	nop
     3e8:	44 00       	.word	0x0044	; ????
     3ea:	82 00       	.word	0x0082	; ????
     3ec:	e4 00       	.word	0x00e4	; ????
     3ee:	00 00       	nop
     3f0:	00 00       	nop
     3f2:	00 00       	nop
     3f4:	44 00       	.word	0x0044	; ????
     3f6:	83 00       	.word	0x0083	; ????
     3f8:	e4 00       	.word	0x00e4	; ????
     3fa:	00 00       	nop
     3fc:	00 00       	nop
     3fe:	00 00       	nop
     400:	44 00       	.word	0x0044	; ????
     402:	84 00       	.word	0x0084	; ????
     404:	e4 00       	.word	0x00e4	; ????
     406:	00 00       	nop
     408:	00 00       	nop
     40a:	00 00       	nop
     40c:	44 00       	.word	0x0044	; ????
     40e:	85 00       	.word	0x0085	; ????
     410:	e4 00       	.word	0x00e4	; ????
     412:	00 00       	nop
     414:	00 00       	nop
     416:	00 00       	nop
     418:	44 00       	.word	0x0044	; ????
     41a:	86 00       	.word	0x0086	; ????
     41c:	e4 00       	.word	0x00e4	; ????
     41e:	00 00       	nop
     420:	00 00       	nop
     422:	00 00       	nop
     424:	44 00       	.word	0x0044	; ????
     426:	87 00       	.word	0x0087	; ????
     428:	e4 00       	.word	0x00e4	; ????
     42a:	00 00       	nop
     42c:	00 00       	nop
     42e:	00 00       	nop
     430:	44 00       	.word	0x0044	; ????
     432:	88 00       	.word	0x0088	; ????
     434:	e4 00       	.word	0x00e4	; ????
     436:	00 00       	nop
     438:	00 00       	nop
     43a:	00 00       	nop
     43c:	44 00       	.word	0x0044	; ????
     43e:	89 00       	.word	0x0089	; ????
     440:	e4 00       	.word	0x00e4	; ????
     442:	00 00       	nop
     444:	00 00       	nop
     446:	00 00       	nop
     448:	44 00       	.word	0x0044	; ????
     44a:	8a 00       	.word	0x008a	; ????
     44c:	e4 00       	.word	0x00e4	; ????
     44e:	00 00       	nop
     450:	00 00       	nop
     452:	00 00       	nop
     454:	44 00       	.word	0x0044	; ????
     456:	8b 00       	.word	0x008b	; ????
     458:	e4 00       	.word	0x00e4	; ????
     45a:	00 00       	nop
     45c:	00 00       	nop
     45e:	00 00       	nop
     460:	44 00       	.word	0x0044	; ????
     462:	8c 00       	.word	0x008c	; ????
     464:	e4 00       	.word	0x00e4	; ????
     466:	00 00       	nop
     468:	00 00       	nop
     46a:	00 00       	nop
     46c:	44 00       	.word	0x0044	; ????
     46e:	8d 00       	.word	0x008d	; ????
     470:	e4 00       	.word	0x00e4	; ????
     472:	00 00       	nop
     474:	00 00       	nop
     476:	00 00       	nop
     478:	44 00       	.word	0x0044	; ????
     47a:	8e 00       	.word	0x008e	; ????
     47c:	e4 00       	.word	0x00e4	; ????
     47e:	00 00       	nop
     480:	00 00       	nop
     482:	00 00       	nop
     484:	44 00       	.word	0x0044	; ????
     486:	8f 00       	.word	0x008f	; ????
     488:	e4 00       	.word	0x00e4	; ????
     48a:	00 00       	nop
     48c:	00 00       	nop
     48e:	00 00       	nop
     490:	44 00       	.word	0x0044	; ????
     492:	90 00       	.word	0x0090	; ????
     494:	e4 00       	.word	0x00e4	; ????
     496:	00 00       	nop
     498:	00 00       	nop
     49a:	00 00       	nop
     49c:	44 00       	.word	0x0044	; ????
     49e:	91 00       	.word	0x0091	; ????
     4a0:	e4 00       	.word	0x00e4	; ????
     4a2:	00 00       	nop
     4a4:	00 00       	nop
     4a6:	00 00       	nop
     4a8:	44 00       	.word	0x0044	; ????
     4aa:	92 00       	.word	0x0092	; ????
     4ac:	e4 00       	.word	0x00e4	; ????
     4ae:	00 00       	nop
     4b0:	00 00       	nop
     4b2:	00 00       	nop
     4b4:	44 00       	.word	0x0044	; ????
     4b6:	93 00       	.word	0x0093	; ????
     4b8:	e4 00       	.word	0x00e4	; ????
     4ba:	00 00       	nop
     4bc:	00 00       	nop
     4be:	00 00       	nop
     4c0:	44 00       	.word	0x0044	; ????
     4c2:	94 00       	.word	0x0094	; ????
     4c4:	e4 00       	.word	0x00e4	; ????
     4c6:	00 00       	nop
     4c8:	00 00       	nop
     4ca:	00 00       	nop
     4cc:	44 00       	.word	0x0044	; ????
     4ce:	95 00       	.word	0x0095	; ????
     4d0:	e4 00       	.word	0x00e4	; ????
     4d2:	00 00       	nop
     4d4:	00 00       	nop
     4d6:	00 00       	nop
     4d8:	44 00       	.word	0x0044	; ????
     4da:	96 00       	.word	0x0096	; ????
     4dc:	e4 00       	.word	0x00e4	; ????
     4de:	00 00       	nop
     4e0:	00 00       	nop
     4e2:	00 00       	nop
     4e4:	44 00       	.word	0x0044	; ????
     4e6:	97 00       	.word	0x0097	; ????
     4e8:	e4 00       	.word	0x00e4	; ????
     4ea:	00 00       	nop
     4ec:	00 00       	nop
     4ee:	00 00       	nop
     4f0:	44 00       	.word	0x0044	; ????
     4f2:	98 00       	.word	0x0098	; ????
     4f4:	e4 00       	.word	0x00e4	; ????
     4f6:	00 00       	nop
     4f8:	00 00       	nop
     4fa:	00 00       	nop
     4fc:	44 00       	.word	0x0044	; ????
     4fe:	99 00       	.word	0x0099	; ????
     500:	e4 00       	.word	0x00e4	; ????
     502:	00 00       	nop
     504:	00 00       	nop
     506:	00 00       	nop
     508:	44 00       	.word	0x0044	; ????
     50a:	9a 00       	.word	0x009a	; ????
     50c:	e4 00       	.word	0x00e4	; ????
     50e:	00 00       	nop
     510:	00 00       	nop
     512:	00 00       	nop
     514:	44 00       	.word	0x0044	; ????
     516:	9b 00       	.word	0x009b	; ????
     518:	e4 00       	.word	0x00e4	; ????
     51a:	00 00       	nop
     51c:	00 00       	nop
     51e:	00 00       	nop
     520:	44 00       	.word	0x0044	; ????
     522:	9c 00       	.word	0x009c	; ????
     524:	e4 00       	.word	0x00e4	; ????
     526:	00 00       	nop
     528:	00 00       	nop
     52a:	00 00       	nop
     52c:	44 00       	.word	0x0044	; ????
     52e:	9d 00       	.word	0x009d	; ????
     530:	e4 00       	.word	0x00e4	; ????
     532:	00 00       	nop
     534:	00 00       	nop
     536:	00 00       	nop
     538:	44 00       	.word	0x0044	; ????
     53a:	9e 00       	.word	0x009e	; ????
     53c:	e4 00       	.word	0x00e4	; ????
     53e:	00 00       	nop
     540:	00 00       	nop
     542:	00 00       	nop
     544:	44 00       	.word	0x0044	; ????
     546:	9f 00       	.word	0x009f	; ????
     548:	e4 00       	.word	0x00e4	; ????
     54a:	00 00       	nop
     54c:	00 00       	nop
     54e:	00 00       	nop
     550:	44 00       	.word	0x0044	; ????
     552:	a0 00       	.word	0x00a0	; ????
     554:	e4 00       	.word	0x00e4	; ????
     556:	00 00       	nop
     558:	00 00       	nop
     55a:	00 00       	nop
     55c:	44 00       	.word	0x0044	; ????
     55e:	a1 00       	.word	0x00a1	; ????
     560:	e4 00       	.word	0x00e4	; ????
     562:	00 00       	nop
     564:	00 00       	nop
     566:	00 00       	nop
     568:	44 00       	.word	0x0044	; ????
     56a:	a2 00       	.word	0x00a2	; ????
     56c:	e4 00       	.word	0x00e4	; ????
     56e:	00 00       	nop
     570:	00 00       	nop
     572:	00 00       	nop
     574:	44 00       	.word	0x0044	; ????
     576:	a3 00       	.word	0x00a3	; ????
     578:	e4 00       	.word	0x00e4	; ????
     57a:	00 00       	nop
     57c:	00 00       	nop
     57e:	00 00       	nop
     580:	44 00       	.word	0x0044	; ????
     582:	a4 00       	.word	0x00a4	; ????
     584:	e4 00       	.word	0x00e4	; ????
     586:	00 00       	nop
     588:	00 00       	nop
     58a:	00 00       	nop
     58c:	44 00       	.word	0x0044	; ????
     58e:	a5 00       	.word	0x00a5	; ????
     590:	e4 00       	.word	0x00e4	; ????
     592:	00 00       	nop
     594:	00 00       	nop
     596:	00 00       	nop
     598:	44 00       	.word	0x0044	; ????
     59a:	a6 00       	.word	0x00a6	; ????
     59c:	e4 00       	.word	0x00e4	; ????
     59e:	00 00       	nop
     5a0:	00 00       	nop
     5a2:	00 00       	nop
     5a4:	44 00       	.word	0x0044	; ????
     5a6:	a7 00       	.word	0x00a7	; ????
     5a8:	e4 00       	.word	0x00e4	; ????
     5aa:	00 00       	nop
     5ac:	00 00       	nop
     5ae:	00 00       	nop
     5b0:	44 00       	.word	0x0044	; ????
     5b2:	a8 00       	.word	0x00a8	; ????
     5b4:	e4 00       	.word	0x00e4	; ????
     5b6:	00 00       	nop
     5b8:	00 00       	nop
     5ba:	00 00       	nop
     5bc:	44 00       	.word	0x0044	; ????
     5be:	a9 00       	.word	0x00a9	; ????
     5c0:	e4 00       	.word	0x00e4	; ????
     5c2:	00 00       	nop
     5c4:	00 00       	nop
     5c6:	00 00       	nop
     5c8:	44 00       	.word	0x0044	; ????
     5ca:	aa 00       	.word	0x00aa	; ????
     5cc:	e4 00       	.word	0x00e4	; ????
     5ce:	00 00       	nop
     5d0:	00 00       	nop
     5d2:	00 00       	nop
     5d4:	44 00       	.word	0x0044	; ????
     5d6:	ab 00       	.word	0x00ab	; ????
     5d8:	e4 00       	.word	0x00e4	; ????
     5da:	00 00       	nop
     5dc:	00 00       	nop
     5de:	00 00       	nop
     5e0:	44 00       	.word	0x0044	; ????
     5e2:	ac 00       	.word	0x00ac	; ????
     5e4:	e4 00       	.word	0x00e4	; ????
     5e6:	00 00       	nop
     5e8:	00 00       	nop
     5ea:	00 00       	nop
     5ec:	44 00       	.word	0x0044	; ????
     5ee:	ad 00       	.word	0x00ad	; ????
     5f0:	e4 00       	.word	0x00e4	; ????
     5f2:	00 00       	nop
     5f4:	00 00       	nop
     5f6:	00 00       	nop
     5f8:	44 00       	.word	0x0044	; ????
     5fa:	ae 00       	.word	0x00ae	; ????
     5fc:	e4 00       	.word	0x00e4	; ????
     5fe:	00 00       	nop
     600:	00 00       	nop
     602:	00 00       	nop
     604:	44 00       	.word	0x0044	; ????
     606:	af 00       	.word	0x00af	; ????
     608:	e4 00       	.word	0x00e4	; ????
     60a:	00 00       	nop
     60c:	00 00       	nop
     60e:	00 00       	nop
     610:	44 00       	.word	0x0044	; ????
     612:	b0 00       	.word	0x00b0	; ????
     614:	e4 00       	.word	0x00e4	; ????
     616:	00 00       	nop
     618:	00 00       	nop
     61a:	00 00       	nop
     61c:	44 00       	.word	0x0044	; ????
     61e:	b1 00       	.word	0x00b1	; ????
     620:	e4 00       	.word	0x00e4	; ????
     622:	00 00       	nop
     624:	00 00       	nop
     626:	00 00       	nop
     628:	44 00       	.word	0x0044	; ????
     62a:	b2 00       	.word	0x00b2	; ????
     62c:	e4 00       	.word	0x00e4	; ????
     62e:	00 00       	nop
     630:	00 00       	nop
     632:	00 00       	nop
     634:	44 00       	.word	0x0044	; ????
     636:	b3 00       	.word	0x00b3	; ????
     638:	e4 00       	.word	0x00e4	; ????
     63a:	00 00       	nop
     63c:	00 00       	nop
     63e:	00 00       	nop
     640:	24 00       	.word	0x0024	; ????
     642:	00 00       	nop
     644:	e4 00       	.word	0x00e4	; ????
     646:	00 00       	nop
     648:	41 00       	.word	0x0041	; ????
     64a:	00 00       	nop
     64c:	24 00       	.word	0x0024	; ????
     64e:	c0 00       	.word	0x00c0	; ????
     650:	0c 01       	movw	r0, r24
     652:	00 00       	nop
     654:	00 00       	nop
     656:	00 00       	nop
     658:	44 00       	.word	0x0044	; ????
     65a:	c3 00       	.word	0x00c3	; ????
     65c:	00 00       	nop
     65e:	00 00       	nop
     660:	00 00       	nop
     662:	00 00       	nop
     664:	24 00       	.word	0x0024	; ????
     666:	00 00       	nop
     668:	04 00       	.word	0x0004	; ????
     66a:	00 00       	nop
     66c:	00 00       	nop
     66e:	00 00       	nop
     670:	44 00       	.word	0x0044	; ????
     672:	d8 00       	.word	0x00d8	; ????
     674:	e4 00       	.word	0x00e4	; ????
     676:	00 00       	nop
     678:	00 00       	nop
     67a:	00 00       	nop
     67c:	44 00       	.word	0x0044	; ????
     67e:	d9 00       	.word	0x00d9	; ????
     680:	e6 00       	.word	0x00e6	; ????
     682:	00 00       	nop
     684:	00 00       	nop
     686:	00 00       	nop
     688:	44 00       	.word	0x0044	; ????
     68a:	da 00       	.word	0x00da	; ????
     68c:	e8 00       	.word	0x00e8	; ????
     68e:	00 00       	nop
     690:	00 00       	nop
     692:	00 00       	nop
     694:	44 00       	.word	0x0044	; ????
     696:	dc 00       	.word	0x00dc	; ????
     698:	ea 00       	.word	0x00ea	; ????
     69a:	00 00       	nop
     69c:	00 00       	nop
     69e:	00 00       	nop
     6a0:	44 00       	.word	0x0044	; ????
     6a2:	dd 00       	.word	0x00dd	; ????
     6a4:	ec 00       	.word	0x00ec	; ????
     6a6:	00 00       	nop
     6a8:	00 00       	nop
     6aa:	00 00       	nop
     6ac:	44 00       	.word	0x0044	; ????
     6ae:	df 00       	.word	0x00df	; ????
     6b0:	ee 00       	.word	0x00ee	; ????
     6b2:	00 00       	nop
     6b4:	00 00       	nop
     6b6:	00 00       	nop
     6b8:	44 00       	.word	0x0044	; ????
     6ba:	e2 00       	.word	0x00e2	; ????
     6bc:	f0 00       	.word	0x00f0	; ????
     6be:	00 00       	nop
     6c0:	00 00       	nop
     6c2:	00 00       	nop
     6c4:	44 00       	.word	0x0044	; ????
     6c6:	e3 00       	.word	0x00e3	; ????
     6c8:	f2 00       	.word	0x00f2	; ????
     6ca:	00 00       	nop
     6cc:	00 00       	nop
     6ce:	00 00       	nop
     6d0:	44 00       	.word	0x0044	; ????
     6d2:	24 01       	movw	r4, r8
     6d4:	04 01       	movw	r0, r8
     6d6:	00 00       	nop
     6d8:	00 00       	nop
     6da:	00 00       	nop
     6dc:	44 00       	.word	0x0044	; ????
     6de:	25 01       	movw	r4, r10
     6e0:	08 01       	movw	r0, r16
     6e2:	00 00       	nop
     6e4:	54 00       	.word	0x0054	; ????
     6e6:	00 00       	nop
     6e8:	64 00       	.word	0x0064	; ????
     6ea:	02 00       	.word	0x0002	; ????
     6ec:	10 01       	movw	r2, r0
     6ee:	00 00       	nop
     6f0:	85 00       	.word	0x0085	; ????
     6f2:	00 00       	nop
     6f4:	64 00       	.word	0x0064	; ????
     6f6:	02 00       	.word	0x0002	; ????
     6f8:	10 01       	movw	r2, r0
     6fa:	00 00       	nop
     6fc:	8b 00       	.word	0x008b	; ????
     6fe:	00 00       	nop
     700:	3c 00       	.word	0x003c	; ????
     702:	00 00       	nop
     704:	00 00       	nop
     706:	00 00       	nop
     708:	9a 00       	.word	0x009a	; ????
     70a:	00 00       	nop
     70c:	80 00       	.word	0x0080	; ????
     70e:	00 00       	nop
     710:	00 00       	nop
     712:	00 00       	nop
     714:	ba 00       	.word	0x00ba	; ????
     716:	00 00       	nop
     718:	80 00       	.word	0x0080	; ????
     71a:	00 00       	nop
     71c:	00 00       	nop
     71e:	00 00       	nop
     720:	d4 00       	.word	0x00d4	; ????
     722:	00 00       	nop
     724:	80 00       	.word	0x0080	; ????
     726:	00 00       	nop
     728:	00 00       	nop
     72a:	00 00       	nop
     72c:	0b 01       	movw	r0, r22
     72e:	00 00       	nop
     730:	80 00       	.word	0x0080	; ????
     732:	00 00       	nop
     734:	00 00       	nop
     736:	00 00       	nop
     738:	31 01       	movw	r6, r2
     73a:	00 00       	nop
     73c:	80 00       	.word	0x0080	; ????
     73e:	00 00       	nop
     740:	00 00       	nop
     742:	00 00       	nop
     744:	66 01       	movw	r12, r12
     746:	00 00       	nop
     748:	80 00       	.word	0x0080	; ????
     74a:	00 00       	nop
     74c:	00 00       	nop
     74e:	00 00       	nop
     750:	b7 01       	movw	r22, r14
     752:	00 00       	nop
     754:	80 00       	.word	0x0080	; ????
     756:	00 00       	nop
     758:	00 00       	nop
     75a:	00 00       	nop
     75c:	fc 01       	movw	r30, r24
     75e:	00 00       	nop
     760:	80 00       	.word	0x0080	; ????
     762:	00 00       	nop
     764:	00 00       	nop
     766:	00 00       	nop
     768:	22 02       	muls	r18, r18
     76a:	00 00       	nop
     76c:	80 00       	.word	0x0080	; ????
     76e:	00 00       	nop
     770:	00 00       	nop
     772:	00 00       	nop
     774:	4e 02       	muls	r20, r30
     776:	00 00       	nop
     778:	80 00       	.word	0x0080	; ????
     77a:	00 00       	nop
     77c:	00 00       	nop
     77e:	00 00       	nop
     780:	78 02       	muls	r23, r24
     782:	00 00       	nop
     784:	80 00       	.word	0x0080	; ????
     786:	00 00       	nop
     788:	00 00       	nop
     78a:	00 00       	nop
     78c:	a1 02       	muls	r26, r17
     78e:	00 00       	nop
     790:	80 00       	.word	0x0080	; ????
     792:	00 00       	nop
     794:	00 00       	nop
     796:	00 00       	nop
     798:	bb 02       	muls	r27, r27
     79a:	00 00       	nop
     79c:	80 00       	.word	0x0080	; ????
     79e:	00 00       	nop
     7a0:	00 00       	nop
     7a2:	00 00       	nop
     7a4:	d6 02       	muls	r29, r22
     7a6:	00 00       	nop
     7a8:	80 00       	.word	0x0080	; ????
     7aa:	00 00       	nop
     7ac:	00 00       	nop
     7ae:	00 00       	nop
     7b0:	f6 02       	muls	r31, r22
     7b2:	00 00       	nop
     7b4:	80 00       	.word	0x0080	; ????
     7b6:	00 00       	nop
     7b8:	00 00       	nop
     7ba:	00 00       	nop
     7bc:	17 03       	mulsu	r17, r23
     7be:	00 00       	nop
     7c0:	80 00       	.word	0x0080	; ????
     7c2:	00 00       	nop
     7c4:	00 00       	nop
     7c6:	00 00       	nop
     7c8:	32 03       	mulsu	r19, r18
     7ca:	00 00       	nop
     7cc:	80 00       	.word	0x0080	; ????
     7ce:	00 00       	nop
     7d0:	00 00       	nop
     7d2:	00 00       	nop
     7d4:	52 03       	mulsu	r21, r18
     7d6:	00 00       	nop
     7d8:	80 00       	.word	0x0080	; ????
     7da:	00 00       	nop
     7dc:	00 00       	nop
     7de:	00 00       	nop
     7e0:	77 03       	mulsu	r23, r23
     7e2:	00 00       	nop
     7e4:	80 00       	.word	0x0080	; ????
     7e6:	00 00       	nop
     7e8:	00 00       	nop
     7ea:	00 00       	nop
     7ec:	a1 03       	fmuls	r18, r17
     7ee:	00 00       	nop
     7f0:	80 00       	.word	0x0080	; ????
     7f2:	00 00       	nop
     7f4:	00 00       	nop
     7f6:	00 00       	nop
     7f8:	c5 03       	fmuls	r20, r21
     7fa:	00 00       	nop
     7fc:	80 00       	.word	0x0080	; ????
     7fe:	00 00       	nop
     800:	00 00       	nop
     802:	00 00       	nop
     804:	ee 03       	fmulsu	r22, r22
     806:	00 00       	nop
     808:	80 00       	.word	0x0080	; ????
     80a:	00 00       	nop
     80c:	00 00       	nop
     80e:	00 00       	nop
     810:	1c 04       	cpc	r1, r12
     812:	00 00       	nop
     814:	80 00       	.word	0x0080	; ????
     816:	00 00       	nop
     818:	00 00       	nop
     81a:	00 00       	nop
     81c:	42 04       	cpc	r4, r2
     81e:	00 00       	nop
     820:	80 00       	.word	0x0080	; ????
     822:	00 00       	nop
     824:	00 00       	nop
     826:	00 00       	nop
     828:	62 04       	cpc	r6, r2
     82a:	00 00       	nop
     82c:	80 00       	.word	0x0080	; ????
     82e:	00 00       	nop
     830:	00 00       	nop
     832:	00 00       	nop
     834:	87 04       	cpc	r8, r7
     836:	00 00       	nop
     838:	80 00       	.word	0x0080	; ????
     83a:	00 00       	nop
     83c:	00 00       	nop
     83e:	00 00       	nop
     840:	b1 04       	cpc	r11, r1
     842:	00 00       	nop
     844:	80 00       	.word	0x0080	; ????
     846:	00 00       	nop
     848:	00 00       	nop
     84a:	00 00       	nop
     84c:	e0 04       	cpc	r14, r0
     84e:	00 00       	nop
     850:	80 00       	.word	0x0080	; ????
     852:	00 00       	nop
     854:	00 00       	nop
     856:	00 00       	nop
     858:	09 05       	cpc	r16, r9
     85a:	00 00       	nop
     85c:	80 00       	.word	0x0080	; ????
     85e:	00 00       	nop
     860:	00 00       	nop
     862:	00 00       	nop
     864:	37 05       	cpc	r19, r7
     866:	00 00       	nop
     868:	80 00       	.word	0x0080	; ????
     86a:	00 00       	nop
     86c:	00 00       	nop
     86e:	00 00       	nop
     870:	6a 05       	cpc	r22, r10
     872:	00 00       	nop
     874:	80 00       	.word	0x0080	; ????
     876:	00 00       	nop
     878:	00 00       	nop
     87a:	00 00       	nop
     87c:	8b 05       	cpc	r24, r11
     87e:	00 00       	nop
     880:	80 00       	.word	0x0080	; ????
     882:	00 00       	nop
     884:	00 00       	nop
     886:	00 00       	nop
     888:	a6 05       	cpc	r26, r6
     88a:	00 00       	nop
     88c:	80 00       	.word	0x0080	; ????
     88e:	00 00       	nop
     890:	00 00       	nop
     892:	00 00       	nop
     894:	c6 05       	cpc	r28, r6
     896:	00 00       	nop
     898:	80 00       	.word	0x0080	; ????
     89a:	00 00       	nop
     89c:	00 00       	nop
     89e:	00 00       	nop
     8a0:	eb 05       	cpc	r30, r11
     8a2:	00 00       	nop
     8a4:	80 00       	.word	0x0080	; ????
     8a6:	00 00       	nop
     8a8:	00 00       	nop
     8aa:	00 00       	nop
     8ac:	15 06       	cpc	r1, r21
     8ae:	00 00       	nop
     8b0:	80 00       	.word	0x0080	; ????
     8b2:	00 00       	nop
     8b4:	00 00       	nop
     8b6:	00 00       	nop
     8b8:	39 06       	cpc	r3, r25
     8ba:	00 00       	nop
     8bc:	80 00       	.word	0x0080	; ????
     8be:	00 00       	nop
     8c0:	00 00       	nop
     8c2:	00 00       	nop
     8c4:	62 06       	cpc	r6, r18
     8c6:	00 00       	nop
     8c8:	80 00       	.word	0x0080	; ????
     8ca:	00 00       	nop
     8cc:	00 00       	nop
     8ce:	00 00       	nop
     8d0:	90 06       	cpc	r9, r16
     8d2:	00 00       	nop
     8d4:	80 00       	.word	0x0080	; ????
     8d6:	00 00       	nop
     8d8:	00 00       	nop
     8da:	00 00       	nop
     8dc:	b6 06       	cpc	r11, r22
     8de:	00 00       	nop
     8e0:	80 00       	.word	0x0080	; ????
     8e2:	00 00       	nop
     8e4:	00 00       	nop
     8e6:	00 00       	nop
     8e8:	d6 06       	cpc	r13, r22
     8ea:	00 00       	nop
     8ec:	80 00       	.word	0x0080	; ????
     8ee:	00 00       	nop
     8f0:	00 00       	nop
     8f2:	00 00       	nop
     8f4:	fb 06       	cpc	r15, r27
     8f6:	00 00       	nop
     8f8:	80 00       	.word	0x0080	; ????
     8fa:	00 00       	nop
     8fc:	00 00       	nop
     8fe:	00 00       	nop
     900:	25 07       	cpc	r18, r21
     902:	00 00       	nop
     904:	80 00       	.word	0x0080	; ????
     906:	00 00       	nop
     908:	00 00       	nop
     90a:	00 00       	nop
     90c:	54 07       	cpc	r21, r20
     90e:	00 00       	nop
     910:	80 00       	.word	0x0080	; ????
     912:	00 00       	nop
     914:	00 00       	nop
     916:	00 00       	nop
     918:	7d 07       	cpc	r23, r29
     91a:	00 00       	nop
     91c:	80 00       	.word	0x0080	; ????
     91e:	00 00       	nop
     920:	00 00       	nop
     922:	00 00       	nop
     924:	ab 07       	cpc	r26, r27
     926:	00 00       	nop
     928:	80 00       	.word	0x0080	; ????
     92a:	00 00       	nop
     92c:	00 00       	nop
     92e:	00 00       	nop
     930:	de 07       	cpc	r29, r30
     932:	00 00       	nop
     934:	80 00       	.word	0x0080	; ????
     936:	00 00       	nop
     938:	00 00       	nop
     93a:	00 00       	nop
     93c:	f2 07       	cpc	r31, r18
     93e:	00 00       	nop
     940:	24 00       	.word	0x0024	; ????
     942:	04 00       	.word	0x0004	; ????
     944:	10 01       	movw	r2, r0
     946:	00 00       	nop
     948:	00 00       	nop
     94a:	00 00       	nop
     94c:	2e 00       	.word	0x002e	; ????
     94e:	00 00       	nop
     950:	10 01       	movw	r2, r0
     952:	00 00       	nop
     954:	00 00       	nop
     956:	00 00       	nop
     958:	44 00       	.word	0x0044	; ????
     95a:	05 00       	.word	0x0005	; ????
     95c:	00 00       	nop
     95e:	00 00       	nop
     960:	00 00       	nop
     962:	00 00       	nop
     964:	44 00       	.word	0x0044	; ????
     966:	06 00       	.word	0x0006	; ????
     968:	00 00       	nop
     96a:	00 00       	nop
     96c:	00 00       	nop
     96e:	00 00       	nop
     970:	24 00       	.word	0x0024	; ????
     972:	00 00       	nop
     974:	08 00       	.word	0x0008	; ????
     976:	00 00       	nop
     978:	00 00       	nop
     97a:	00 00       	nop
     97c:	4e 00       	.word	0x004e	; ????
     97e:	00 00       	nop
     980:	18 01       	movw	r2, r16
     982:	00 00       	nop
     984:	00 00       	nop
     986:	00 00       	nop
     988:	64 00       	.word	0x0064	; ????
     98a:	00 00       	nop
     98c:	18 01       	movw	r2, r16
     98e:	00 00       	nop
     990:	54 00       	.word	0x0054	; ????
     992:	00 00       	nop
     994:	64 00       	.word	0x0064	; ????
     996:	02 00       	.word	0x0002	; ????
     998:	18 01       	movw	r2, r16
     99a:	00 00       	nop
     99c:	02 08       	sbc	r0, r2
     99e:	00 00       	nop
     9a0:	64 00       	.word	0x0064	; ????
     9a2:	02 00       	.word	0x0002	; ????
     9a4:	18 01       	movw	r2, r16
     9a6:	00 00       	nop
     9a8:	8b 00       	.word	0x008b	; ????
     9aa:	00 00       	nop
     9ac:	3c 00       	.word	0x003c	; ????
     9ae:	00 00       	nop
     9b0:	00 00       	nop
     9b2:	00 00       	nop
     9b4:	9a 00       	.word	0x009a	; ????
     9b6:	00 00       	nop
     9b8:	80 00       	.word	0x0080	; ????
     9ba:	00 00       	nop
     9bc:	00 00       	nop
     9be:	00 00       	nop
     9c0:	ba 00       	.word	0x00ba	; ????
     9c2:	00 00       	nop
     9c4:	80 00       	.word	0x0080	; ????
     9c6:	00 00       	nop
     9c8:	00 00       	nop
     9ca:	00 00       	nop
     9cc:	d4 00       	.word	0x00d4	; ????
     9ce:	00 00       	nop
     9d0:	80 00       	.word	0x0080	; ????
     9d2:	00 00       	nop
     9d4:	00 00       	nop
     9d6:	00 00       	nop
     9d8:	0b 01       	movw	r0, r22
     9da:	00 00       	nop
     9dc:	80 00       	.word	0x0080	; ????
     9de:	00 00       	nop
     9e0:	00 00       	nop
     9e2:	00 00       	nop
     9e4:	31 01       	movw	r6, r2
     9e6:	00 00       	nop
     9e8:	80 00       	.word	0x0080	; ????
     9ea:	00 00       	nop
     9ec:	00 00       	nop
     9ee:	00 00       	nop
     9f0:	66 01       	movw	r12, r12
     9f2:	00 00       	nop
     9f4:	80 00       	.word	0x0080	; ????
     9f6:	00 00       	nop
     9f8:	00 00       	nop
     9fa:	00 00       	nop
     9fc:	b7 01       	movw	r22, r14
     9fe:	00 00       	nop
     a00:	80 00       	.word	0x0080	; ????
     a02:	00 00       	nop
     a04:	00 00       	nop
     a06:	00 00       	nop
     a08:	fc 01       	movw	r30, r24
     a0a:	00 00       	nop
     a0c:	80 00       	.word	0x0080	; ????
     a0e:	00 00       	nop
     a10:	00 00       	nop
     a12:	00 00       	nop
     a14:	22 02       	muls	r18, r18
     a16:	00 00       	nop
     a18:	80 00       	.word	0x0080	; ????
     a1a:	00 00       	nop
     a1c:	00 00       	nop
     a1e:	00 00       	nop
     a20:	4e 02       	muls	r20, r30
     a22:	00 00       	nop
     a24:	80 00       	.word	0x0080	; ????
     a26:	00 00       	nop
     a28:	00 00       	nop
     a2a:	00 00       	nop
     a2c:	78 02       	muls	r23, r24
     a2e:	00 00       	nop
     a30:	80 00       	.word	0x0080	; ????
     a32:	00 00       	nop
     a34:	00 00       	nop
     a36:	00 00       	nop
     a38:	a1 02       	muls	r26, r17
     a3a:	00 00       	nop
     a3c:	80 00       	.word	0x0080	; ????
     a3e:	00 00       	nop
     a40:	00 00       	nop
     a42:	00 00       	nop
     a44:	bb 02       	muls	r27, r27
     a46:	00 00       	nop
     a48:	80 00       	.word	0x0080	; ????
     a4a:	00 00       	nop
     a4c:	00 00       	nop
     a4e:	00 00       	nop
     a50:	d6 02       	muls	r29, r22
     a52:	00 00       	nop
     a54:	80 00       	.word	0x0080	; ????
     a56:	00 00       	nop
     a58:	00 00       	nop
     a5a:	00 00       	nop
     a5c:	f6 02       	muls	r31, r22
     a5e:	00 00       	nop
     a60:	80 00       	.word	0x0080	; ????
     a62:	00 00       	nop
     a64:	00 00       	nop
     a66:	00 00       	nop
     a68:	17 03       	mulsu	r17, r23
     a6a:	00 00       	nop
     a6c:	80 00       	.word	0x0080	; ????
     a6e:	00 00       	nop
     a70:	00 00       	nop
     a72:	00 00       	nop
     a74:	32 03       	mulsu	r19, r18
     a76:	00 00       	nop
     a78:	80 00       	.word	0x0080	; ????
     a7a:	00 00       	nop
     a7c:	00 00       	nop
     a7e:	00 00       	nop
     a80:	52 03       	mulsu	r21, r18
     a82:	00 00       	nop
     a84:	80 00       	.word	0x0080	; ????
     a86:	00 00       	nop
     a88:	00 00       	nop
     a8a:	00 00       	nop
     a8c:	77 03       	mulsu	r23, r23
     a8e:	00 00       	nop
     a90:	80 00       	.word	0x0080	; ????
     a92:	00 00       	nop
     a94:	00 00       	nop
     a96:	00 00       	nop
     a98:	a1 03       	fmuls	r18, r17
     a9a:	00 00       	nop
     a9c:	80 00       	.word	0x0080	; ????
     a9e:	00 00       	nop
     aa0:	00 00       	nop
     aa2:	00 00       	nop
     aa4:	c5 03       	fmuls	r20, r21
     aa6:	00 00       	nop
     aa8:	80 00       	.word	0x0080	; ????
     aaa:	00 00       	nop
     aac:	00 00       	nop
     aae:	00 00       	nop
     ab0:	ee 03       	fmulsu	r22, r22
     ab2:	00 00       	nop
     ab4:	80 00       	.word	0x0080	; ????
     ab6:	00 00       	nop
     ab8:	00 00       	nop
     aba:	00 00       	nop
     abc:	1c 04       	cpc	r1, r12
     abe:	00 00       	nop
     ac0:	80 00       	.word	0x0080	; ????
     ac2:	00 00       	nop
     ac4:	00 00       	nop
     ac6:	00 00       	nop
     ac8:	42 04       	cpc	r4, r2
     aca:	00 00       	nop
     acc:	80 00       	.word	0x0080	; ????
     ace:	00 00       	nop
     ad0:	00 00       	nop
     ad2:	00 00       	nop
     ad4:	62 04       	cpc	r6, r2
     ad6:	00 00       	nop
     ad8:	80 00       	.word	0x0080	; ????
     ada:	00 00       	nop
     adc:	00 00       	nop
     ade:	00 00       	nop
     ae0:	87 04       	cpc	r8, r7
     ae2:	00 00       	nop
     ae4:	80 00       	.word	0x0080	; ????
     ae6:	00 00       	nop
     ae8:	00 00       	nop
     aea:	00 00       	nop
     aec:	b1 04       	cpc	r11, r1
     aee:	00 00       	nop
     af0:	80 00       	.word	0x0080	; ????
     af2:	00 00       	nop
     af4:	00 00       	nop
     af6:	00 00       	nop
     af8:	e0 04       	cpc	r14, r0
     afa:	00 00       	nop
     afc:	80 00       	.word	0x0080	; ????
     afe:	00 00       	nop
     b00:	00 00       	nop
     b02:	00 00       	nop
     b04:	09 05       	cpc	r16, r9
     b06:	00 00       	nop
     b08:	80 00       	.word	0x0080	; ????
     b0a:	00 00       	nop
     b0c:	00 00       	nop
     b0e:	00 00       	nop
     b10:	37 05       	cpc	r19, r7
     b12:	00 00       	nop
     b14:	80 00       	.word	0x0080	; ????
     b16:	00 00       	nop
     b18:	00 00       	nop
     b1a:	00 00       	nop
     b1c:	6a 05       	cpc	r22, r10
     b1e:	00 00       	nop
     b20:	80 00       	.word	0x0080	; ????
     b22:	00 00       	nop
     b24:	00 00       	nop
     b26:	00 00       	nop
     b28:	8b 05       	cpc	r24, r11
     b2a:	00 00       	nop
     b2c:	80 00       	.word	0x0080	; ????
     b2e:	00 00       	nop
     b30:	00 00       	nop
     b32:	00 00       	nop
     b34:	a6 05       	cpc	r26, r6
     b36:	00 00       	nop
     b38:	80 00       	.word	0x0080	; ????
     b3a:	00 00       	nop
     b3c:	00 00       	nop
     b3e:	00 00       	nop
     b40:	c6 05       	cpc	r28, r6
     b42:	00 00       	nop
     b44:	80 00       	.word	0x0080	; ????
     b46:	00 00       	nop
     b48:	00 00       	nop
     b4a:	00 00       	nop
     b4c:	eb 05       	cpc	r30, r11
     b4e:	00 00       	nop
     b50:	80 00       	.word	0x0080	; ????
     b52:	00 00       	nop
     b54:	00 00       	nop
     b56:	00 00       	nop
     b58:	15 06       	cpc	r1, r21
     b5a:	00 00       	nop
     b5c:	80 00       	.word	0x0080	; ????
     b5e:	00 00       	nop
     b60:	00 00       	nop
     b62:	00 00       	nop
     b64:	39 06       	cpc	r3, r25
     b66:	00 00       	nop
     b68:	80 00       	.word	0x0080	; ????
     b6a:	00 00       	nop
     b6c:	00 00       	nop
     b6e:	00 00       	nop
     b70:	62 06       	cpc	r6, r18
     b72:	00 00       	nop
     b74:	80 00       	.word	0x0080	; ????
     b76:	00 00       	nop
     b78:	00 00       	nop
     b7a:	00 00       	nop
     b7c:	90 06       	cpc	r9, r16
     b7e:	00 00       	nop
     b80:	80 00       	.word	0x0080	; ????
     b82:	00 00       	nop
     b84:	00 00       	nop
     b86:	00 00       	nop
     b88:	b6 06       	cpc	r11, r22
     b8a:	00 00       	nop
     b8c:	80 00       	.word	0x0080	; ????
     b8e:	00 00       	nop
     b90:	00 00       	nop
     b92:	00 00       	nop
     b94:	d6 06       	cpc	r13, r22
     b96:	00 00       	nop
     b98:	80 00       	.word	0x0080	; ????
     b9a:	00 00       	nop
     b9c:	00 00       	nop
     b9e:	00 00       	nop
     ba0:	fb 06       	cpc	r15, r27
     ba2:	00 00       	nop
     ba4:	80 00       	.word	0x0080	; ????
     ba6:	00 00       	nop
     ba8:	00 00       	nop
     baa:	00 00       	nop
     bac:	25 07       	cpc	r18, r21
     bae:	00 00       	nop
     bb0:	80 00       	.word	0x0080	; ????
     bb2:	00 00       	nop
     bb4:	00 00       	nop
     bb6:	00 00       	nop
     bb8:	54 07       	cpc	r21, r20
     bba:	00 00       	nop
     bbc:	80 00       	.word	0x0080	; ????
     bbe:	00 00       	nop
     bc0:	00 00       	nop
     bc2:	00 00       	nop
     bc4:	7d 07       	cpc	r23, r29
     bc6:	00 00       	nop
     bc8:	80 00       	.word	0x0080	; ????
     bca:	00 00       	nop
     bcc:	00 00       	nop
     bce:	00 00       	nop
     bd0:	ab 07       	cpc	r26, r27
     bd2:	00 00       	nop
     bd4:	80 00       	.word	0x0080	; ????
     bd6:	00 00       	nop
     bd8:	00 00       	nop
     bda:	00 00       	nop
     bdc:	de 07       	cpc	r29, r30
     bde:	00 00       	nop
     be0:	80 00       	.word	0x0080	; ????
     be2:	00 00       	nop
     be4:	00 00       	nop
     be6:	00 00       	nop
     be8:	0a 08       	sbc	r0, r10
     bea:	00 00       	nop
     bec:	82 00       	.word	0x0082	; ????
     bee:	00 00       	nop
     bf0:	32 2b       	or	r19, r18
     bf2:	00 00       	nop
     bf4:	27 08       	sbc	r2, r7
     bf6:	00 00       	nop
     bf8:	82 00       	.word	0x0082	; ????
     bfa:	00 00       	nop
     bfc:	25 0f       	add	r18, r21
     bfe:	00 00       	nop
     c00:	47 08       	sbc	r4, r7
     c02:	00 00       	nop
     c04:	82 00       	.word	0x0082	; ????
     c06:	00 00       	nop
     c08:	00 00       	nop
     c0a:	00 00       	nop
     c0c:	6f 08       	sbc	r6, r15
     c0e:	00 00       	nop
     c10:	82 00       	.word	0x0082	; ????
     c12:	00 00       	nop
     c14:	33 b8       	out	0x03, r3	; 3
     c16:	00 00       	nop
     c18:	8d 08       	sbc	r8, r13
     c1a:	00 00       	nop
     c1c:	80 00       	.word	0x0080	; ????
     c1e:	79 00       	.word	0x0079	; ????
     c20:	00 00       	nop
     c22:	00 00       	nop
     c24:	a2 08       	sbc	r10, r2
     c26:	00 00       	nop
     c28:	80 00       	.word	0x0080	; ????
     c2a:	7a 00       	.word	0x007a	; ????
     c2c:	00 00       	nop
     c2e:	00 00       	nop
     c30:	b8 08       	sbc	r11, r8
     c32:	00 00       	nop
     c34:	80 00       	.word	0x0080	; ????
     c36:	7b 00       	.word	0x007b	; ????
     c38:	00 00       	nop
     c3a:	00 00       	nop
     c3c:	cd 08       	sbc	r12, r13
     c3e:	00 00       	nop
     c40:	80 00       	.word	0x0080	; ????
     c42:	7c 00       	.word	0x007c	; ????
     c44:	00 00       	nop
     c46:	00 00       	nop
     c48:	e3 08       	sbc	r14, r3
     c4a:	00 00       	nop
     c4c:	80 00       	.word	0x0080	; ????
     c4e:	7d 00       	.word	0x007d	; ????
     c50:	00 00       	nop
     c52:	00 00       	nop
     c54:	f8 08       	sbc	r15, r8
     c56:	00 00       	nop
     c58:	80 00       	.word	0x0080	; ????
     c5a:	7e 00       	.word	0x007e	; ????
     c5c:	00 00       	nop
     c5e:	00 00       	nop
     c60:	0e 09       	sbc	r16, r14
     c62:	00 00       	nop
     c64:	80 00       	.word	0x0080	; ????
     c66:	80 00       	.word	0x0080	; ????
     c68:	00 00       	nop
     c6a:	00 00       	nop
     c6c:	23 09       	sbc	r18, r3
     c6e:	00 00       	nop
     c70:	80 00       	.word	0x0080	; ????
     c72:	81 00       	.word	0x0081	; ????
     c74:	00 00       	nop
     c76:	00 00       	nop
     c78:	39 09       	sbc	r19, r9
     c7a:	00 00       	nop
     c7c:	80 00       	.word	0x0080	; ????
     c7e:	8e 00       	.word	0x008e	; ????
     c80:	00 00       	nop
     c82:	00 00       	nop
     c84:	4f 09       	sbc	r20, r15
     c86:	00 00       	nop
     c88:	80 00       	.word	0x0080	; ????
     c8a:	93 00       	.word	0x0093	; ????
     c8c:	00 00       	nop
     c8e:	00 00       	nop
     c90:	67 09       	sbc	r22, r7
     c92:	00 00       	nop
     c94:	80 00       	.word	0x0080	; ????
     c96:	9f 00       	.word	0x009f	; ????
     c98:	00 00       	nop
     c9a:	00 00       	nop
     c9c:	82 09       	sbc	r24, r2
     c9e:	00 00       	nop
     ca0:	80 00       	.word	0x0080	; ????
     ca2:	a4 00       	.word	0x00a4	; ????
     ca4:	00 00       	nop
     ca6:	00 00       	nop
     ca8:	9e 09       	sbc	r25, r14
     caa:	00 00       	nop
     cac:	80 00       	.word	0x0080	; ????
     cae:	a9 00       	.word	0x00a9	; ????
     cb0:	00 00       	nop
     cb2:	00 00       	nop
     cb4:	ba 09       	sbc	r27, r10
     cb6:	00 00       	nop
     cb8:	80 00       	.word	0x0080	; ????
     cba:	ae 00       	.word	0x00ae	; ????
     cbc:	00 00       	nop
     cbe:	00 00       	nop
     cc0:	d7 09       	sbc	r29, r7
     cc2:	00 00       	nop
     cc4:	80 00       	.word	0x0080	; ????
     cc6:	b3 00       	.word	0x00b3	; ????
     cc8:	00 00       	nop
     cca:	00 00       	nop
     ccc:	f3 09       	sbc	r31, r3
     cce:	00 00       	nop
     cd0:	80 00       	.word	0x0080	; ????
     cd2:	b8 00       	.word	0x00b8	; ????
     cd4:	00 00       	nop
     cd6:	00 00       	nop
     cd8:	10 0a       	sbc	r1, r16
     cda:	00 00       	nop
     cdc:	80 00       	.word	0x0080	; ????
     cde:	c0 00       	.word	0x00c0	; ????
     ce0:	00 00       	nop
     ce2:	00 00       	nop
     ce4:	2c 0a       	sbc	r2, r28
     ce6:	00 00       	nop
     ce8:	80 00       	.word	0x0080	; ????
     cea:	c7 00       	.word	0x00c7	; ????
     cec:	00 00       	nop
     cee:	00 00       	nop
     cf0:	49 0a       	sbc	r4, r25
     cf2:	00 00       	nop
     cf4:	80 00       	.word	0x0080	; ????
     cf6:	d5 00       	.word	0x00d5	; ????
     cf8:	00 00       	nop
     cfa:	00 00       	nop
     cfc:	63 0a       	sbc	r6, r19
     cfe:	00 00       	nop
     d00:	80 00       	.word	0x0080	; ????
     d02:	da 00       	.word	0x00da	; ????
     d04:	00 00       	nop
     d06:	00 00       	nop
     d08:	7e 0a       	sbc	r7, r30
     d0a:	00 00       	nop
     d0c:	80 00       	.word	0x0080	; ????
     d0e:	df 00       	.word	0x00df	; ????
     d10:	00 00       	nop
     d12:	00 00       	nop
     d14:	99 0a       	sbc	r9, r25
     d16:	00 00       	nop
     d18:	80 00       	.word	0x0080	; ????
     d1a:	e4 00       	.word	0x00e4	; ????
     d1c:	00 00       	nop
     d1e:	00 00       	nop
     d20:	b5 0a       	sbc	r11, r21
     d22:	00 00       	nop
     d24:	80 00       	.word	0x0080	; ????
     d26:	e9 00       	.word	0x00e9	; ????
     d28:	00 00       	nop
     d2a:	00 00       	nop
     d2c:	d0 0a       	sbc	r13, r16
     d2e:	00 00       	nop
     d30:	80 00       	.word	0x0080	; ????
     d32:	ee 00       	.word	0x00ee	; ????
     d34:	00 00       	nop
     d36:	00 00       	nop
     d38:	ec 0a       	sbc	r14, r28
     d3a:	00 00       	nop
     d3c:	80 00       	.word	0x0080	; ????
     d3e:	f6 00       	.word	0x00f6	; ????
     d40:	00 00       	nop
     d42:	00 00       	nop
     d44:	07 0b       	sbc	r16, r23
     d46:	00 00       	nop
     d48:	80 00       	.word	0x0080	; ????
     d4a:	fd 00       	.word	0x00fd	; ????
     d4c:	00 00       	nop
     d4e:	00 00       	nop
     d50:	23 0b       	sbc	r18, r19
     d52:	00 00       	nop
     d54:	80 00       	.word	0x0080	; ????
     d56:	11 01       	movw	r2, r2
     d58:	00 00       	nop
     d5a:	00 00       	nop
     d5c:	3a 0b       	sbc	r19, r26
     d5e:	00 00       	nop
     d60:	80 00       	.word	0x0080	; ????
     d62:	16 01       	movw	r2, r12
     d64:	00 00       	nop
     d66:	00 00       	nop
     d68:	00 00       	nop
     d6a:	00 00       	nop
     d6c:	a2 00       	.word	0x00a2	; ????
     d6e:	00 00       	nop
     d70:	00 00       	nop
     d72:	00 00       	nop
     d74:	00 00       	nop
     d76:	00 00       	nop
     d78:	a2 00       	.word	0x00a2	; ????
     d7a:	00 00       	nop
     d7c:	00 00       	nop
     d7e:	00 00       	nop
     d80:	52 0b       	sbc	r21, r18
     d82:	00 00       	nop
     d84:	80 00       	.word	0x0080	; ????
     d86:	4d 00       	.word	0x004d	; ????
     d88:	00 00       	nop
     d8a:	00 00       	nop
     d8c:	6c 0b       	sbc	r22, r28
     d8e:	00 00       	nop
     d90:	80 00       	.word	0x0080	; ????
     d92:	51 00       	.word	0x0051	; ????
     d94:	00 00       	nop
     d96:	00 00       	nop
     d98:	00 00       	nop
     d9a:	00 00       	nop
     d9c:	a2 00       	.word	0x00a2	; ????
     d9e:	00 00       	nop
     da0:	00 00       	nop
     da2:	00 00       	nop
     da4:	87 0b       	sbc	r24, r23
     da6:	00 00       	nop
     da8:	82 00       	.word	0x0082	; ????
     daa:	00 00       	nop
     dac:	8e 0e       	add	r8, r30
     dae:	00 00       	nop
     db0:	af 0b       	sbc	r26, r31
     db2:	00 00       	nop
     db4:	80 00       	.word	0x0080	; ????
     db6:	28 00       	.word	0x0028	; ????
     db8:	00 00       	nop
     dba:	00 00       	nop
     dbc:	d3 0b       	sbc	r29, r19
     dbe:	00 00       	nop
     dc0:	80 00       	.word	0x0080	; ????
     dc2:	62 00       	.word	0x0062	; ????
     dc4:	00 00       	nop
     dc6:	00 00       	nop
     dc8:	00 00       	nop
     dca:	00 00       	nop
     dcc:	a2 00       	.word	0x00a2	; ????
     dce:	00 00       	nop
     dd0:	00 00       	nop
     dd2:	00 00       	nop
     dd4:	e8 0b       	sbc	r30, r24
     dd6:	00 00       	nop
     dd8:	82 00       	.word	0x0082	; ????
     dda:	00 00       	nop
     ddc:	d8 04       	cpc	r13, r8
     dde:	00 00       	nop
     de0:	10 0c       	add	r1, r0
     de2:	00 00       	nop
     de4:	80 00       	.word	0x0080	; ????
     de6:	d4 00       	.word	0x00d4	; ????
     de8:	00 00       	nop
     dea:	00 00       	nop
     dec:	00 00       	nop
     dee:	00 00       	nop
     df0:	a2 00       	.word	0x00a2	; ????
     df2:	00 00       	nop
     df4:	00 00       	nop
     df6:	00 00       	nop
     df8:	24 0c       	add	r2, r4
     dfa:	00 00       	nop
     dfc:	80 00       	.word	0x0080	; ????
     dfe:	00 00       	nop
     e00:	00 00       	nop
     e02:	00 00       	nop
     e04:	00 00       	nop
     e06:	00 00       	nop
     e08:	a2 00       	.word	0x00a2	; ????
     e0a:	00 00       	nop
     e0c:	00 00       	nop
     e0e:	00 00       	nop
     e10:	e7 0c       	add	r14, r7
     e12:	00 00       	nop
     e14:	82 00       	.word	0x0082	; ????
     e16:	00 00       	nop
     e18:	00 00       	nop
     e1a:	00 00       	nop
     e1c:	05 0d       	add	r16, r5
     e1e:	00 00       	nop
     e20:	82 00       	.word	0x0082	; ????
     e22:	00 00       	nop
     e24:	68 13       	cpse	r22, r24
     e26:	00 00       	nop
     e28:	25 0d       	add	r18, r5
     e2a:	00 00       	nop
     e2c:	80 00       	.word	0x0080	; ????
     e2e:	f4 00       	.word	0x00f4	; ????
     e30:	00 00       	nop
     e32:	00 00       	nop
     e34:	00 00       	nop
     e36:	00 00       	nop
     e38:	a2 00       	.word	0x00a2	; ????
     e3a:	00 00       	nop
     e3c:	00 00       	nop
     e3e:	00 00       	nop
     e40:	00 00       	nop
     e42:	00 00       	nop
     e44:	a2 00       	.word	0x00a2	; ????
     e46:	00 00       	nop
     e48:	00 00       	nop
     e4a:	00 00       	nop
     e4c:	73 0d       	add	r23, r3
     e4e:	00 00       	nop
     e50:	24 00       	.word	0x0024	; ????
     e52:	27 00       	.word	0x0027	; ????
     e54:	18 01       	movw	r2, r16
     e56:	00 00       	nop
     e58:	00 00       	nop
     e5a:	00 00       	nop
     e5c:	2e 00       	.word	0x002e	; ????
     e5e:	00 00       	nop
     e60:	18 01       	movw	r2, r16
     e62:	00 00       	nop
     e64:	00 00       	nop
     e66:	00 00       	nop
     e68:	44 00       	.word	0x0044	; ????
     e6a:	28 00       	.word	0x0028	; ????
     e6c:	00 00       	nop
     e6e:	00 00       	nop
     e70:	00 00       	nop
     e72:	00 00       	nop
     e74:	44 00       	.word	0x0044	; ????
     e76:	29 00       	.word	0x0029	; ????
     e78:	00 00       	nop
     e7a:	00 00       	nop
     e7c:	00 00       	nop
     e7e:	00 00       	nop
     e80:	44 00       	.word	0x0044	; ????
     e82:	2a 00       	.word	0x002a	; ????
     e84:	04 00       	.word	0x0004	; ????
     e86:	00 00       	nop
     e88:	00 00       	nop
     e8a:	00 00       	nop
     e8c:	44 00       	.word	0x0044	; ????
     e8e:	2c 00       	.word	0x002c	; ????
     e90:	0a 00       	.word	0x000a	; ????
     e92:	00 00       	nop
     e94:	00 00       	nop
     e96:	00 00       	nop
     e98:	24 00       	.word	0x0024	; ????
     e9a:	00 00       	nop
     e9c:	12 00       	.word	0x0012	; ????
     e9e:	00 00       	nop
     ea0:	00 00       	nop
     ea2:	00 00       	nop
     ea4:	4e 00       	.word	0x004e	; ????
     ea6:	00 00       	nop
     ea8:	2a 01       	movw	r4, r20
     eaa:	00 00       	nop
     eac:	87 0d       	add	r24, r7
     eae:	00 00       	nop
     eb0:	24 00       	.word	0x0024	; ????
     eb2:	2f 00       	.word	0x002f	; ????
     eb4:	2a 01       	movw	r4, r20
     eb6:	00 00       	nop
     eb8:	9a 0d       	add	r25, r10
     eba:	00 00       	nop
     ebc:	40 00       	.word	0x0040	; ????
     ebe:	2f 00       	.word	0x002f	; ????
     ec0:	18 00       	.word	0x0018	; ????
     ec2:	00 00       	nop
     ec4:	00 00       	nop
     ec6:	00 00       	nop
     ec8:	2e 00       	.word	0x002e	; ????
     eca:	00 00       	nop
     ecc:	2a 01       	movw	r4, r20
     ece:	00 00       	nop
     ed0:	00 00       	nop
     ed2:	00 00       	nop
     ed4:	44 00       	.word	0x0044	; ????
     ed6:	30 00       	.word	0x0030	; ????
     ed8:	00 00       	nop
     eda:	00 00       	nop
     edc:	00 00       	nop
     ede:	00 00       	nop
     ee0:	44 00       	.word	0x0044	; ????
     ee2:	31 00       	.word	0x0031	; ????
     ee4:	00 00       	nop
     ee6:	00 00       	nop
     ee8:	00 00       	nop
     eea:	00 00       	nop
     eec:	44 00       	.word	0x0044	; ????
     eee:	29 00       	.word	0x0029	; ????
     ef0:	08 00       	.word	0x0008	; ????
     ef2:	00 00       	nop
     ef4:	00 00       	nop
     ef6:	00 00       	nop
     ef8:	44 00       	.word	0x0044	; ????
     efa:	2a 00       	.word	0x002a	; ????
     efc:	0c 00       	.word	0x000c	; ????
     efe:	00 00       	nop
     f00:	00 00       	nop
     f02:	00 00       	nop
     f04:	44 00       	.word	0x0044	; ????
     f06:	2c 00       	.word	0x002c	; ????
     f08:	12 00       	.word	0x0012	; ????
     f0a:	00 00       	nop
     f0c:	00 00       	nop
     f0e:	00 00       	nop
     f10:	44 00       	.word	0x0044	; ????
     f12:	34 00       	.word	0x0034	; ????
     f14:	18 00       	.word	0x0018	; ????
     f16:	00 00       	nop
     f18:	00 00       	nop
     f1a:	00 00       	nop
     f1c:	44 00       	.word	0x0044	; ????
     f1e:	36 00       	.word	0x0036	; ????
     f20:	1e 00       	.word	0x001e	; ????
     f22:	00 00       	nop
     f24:	00 00       	nop
     f26:	00 00       	nop
     f28:	44 00       	.word	0x0044	; ????
     f2a:	37 00       	.word	0x0037	; ????
     f2c:	26 00       	.word	0x0026	; ????
     f2e:	00 00       	nop
     f30:	00 00       	nop
     f32:	00 00       	nop
     f34:	24 00       	.word	0x0024	; ????
     f36:	00 00       	nop
     f38:	2c 00       	.word	0x002c	; ????
     f3a:	00 00       	nop
     f3c:	00 00       	nop
     f3e:	00 00       	nop
     f40:	4e 00       	.word	0x004e	; ????
     f42:	00 00       	nop
     f44:	56 01       	movw	r10, r12
     f46:	00 00       	nop
     f48:	a4 0d       	add	r26, r4
     f4a:	00 00       	nop
     f4c:	26 00       	.word	0x0026	; ????
     f4e:	25 00       	.word	0x0025	; ????
     f50:	00 02       	muls	r16, r16
     f52:	80 00       	.word	0x0080	; ????
     f54:	00 00       	nop
     f56:	00 00       	nop
     f58:	64 00       	.word	0x0064	; ????
     f5a:	00 00       	nop
     f5c:	56 01       	movw	r10, r12
     f5e:	00 00       	nop
     f60:	54 00       	.word	0x0054	; ????
     f62:	00 00       	nop
     f64:	64 00       	.word	0x0064	; ????
     f66:	02 00       	.word	0x0002	; ????
     f68:	56 01       	movw	r10, r12
     f6a:	00 00       	nop
     f6c:	be 0d       	add	r27, r14
     f6e:	00 00       	nop
     f70:	64 00       	.word	0x0064	; ????
     f72:	02 00       	.word	0x0002	; ????
     f74:	56 01       	movw	r10, r12
     f76:	00 00       	nop
     f78:	8b 00       	.word	0x008b	; ????
     f7a:	00 00       	nop
     f7c:	3c 00       	.word	0x003c	; ????
     f7e:	00 00       	nop
     f80:	00 00       	nop
     f82:	00 00       	nop
     f84:	9a 00       	.word	0x009a	; ????
     f86:	00 00       	nop
     f88:	80 00       	.word	0x0080	; ????
     f8a:	00 00       	nop
     f8c:	00 00       	nop
     f8e:	00 00       	nop
     f90:	ba 00       	.word	0x00ba	; ????
     f92:	00 00       	nop
     f94:	80 00       	.word	0x0080	; ????
     f96:	00 00       	nop
     f98:	00 00       	nop
     f9a:	00 00       	nop
     f9c:	d4 00       	.word	0x00d4	; ????
     f9e:	00 00       	nop
     fa0:	80 00       	.word	0x0080	; ????
     fa2:	00 00       	nop
     fa4:	00 00       	nop
     fa6:	00 00       	nop
     fa8:	0b 01       	movw	r0, r22
     faa:	00 00       	nop
     fac:	80 00       	.word	0x0080	; ????
     fae:	00 00       	nop
     fb0:	00 00       	nop
     fb2:	00 00       	nop
     fb4:	31 01       	movw	r6, r2
     fb6:	00 00       	nop
     fb8:	80 00       	.word	0x0080	; ????
     fba:	00 00       	nop
     fbc:	00 00       	nop
     fbe:	00 00       	nop
     fc0:	66 01       	movw	r12, r12
     fc2:	00 00       	nop
     fc4:	80 00       	.word	0x0080	; ????
     fc6:	00 00       	nop
     fc8:	00 00       	nop
     fca:	00 00       	nop
     fcc:	b7 01       	movw	r22, r14
     fce:	00 00       	nop
     fd0:	80 00       	.word	0x0080	; ????
     fd2:	00 00       	nop
     fd4:	00 00       	nop
     fd6:	00 00       	nop
     fd8:	fc 01       	movw	r30, r24
     fda:	00 00       	nop
     fdc:	80 00       	.word	0x0080	; ????
     fde:	00 00       	nop
     fe0:	00 00       	nop
     fe2:	00 00       	nop
     fe4:	22 02       	muls	r18, r18
     fe6:	00 00       	nop
     fe8:	80 00       	.word	0x0080	; ????
     fea:	00 00       	nop
     fec:	00 00       	nop
     fee:	00 00       	nop
     ff0:	4e 02       	muls	r20, r30
     ff2:	00 00       	nop
     ff4:	80 00       	.word	0x0080	; ????
     ff6:	00 00       	nop
     ff8:	00 00       	nop
     ffa:	00 00       	nop
     ffc:	78 02       	muls	r23, r24
     ffe:	00 00       	nop
    1000:	80 00       	.word	0x0080	; ????
    1002:	00 00       	nop
    1004:	00 00       	nop
    1006:	00 00       	nop
    1008:	a1 02       	muls	r26, r17
    100a:	00 00       	nop
    100c:	80 00       	.word	0x0080	; ????
    100e:	00 00       	nop
    1010:	00 00       	nop
    1012:	00 00       	nop
    1014:	bb 02       	muls	r27, r27
    1016:	00 00       	nop
    1018:	80 00       	.word	0x0080	; ????
    101a:	00 00       	nop
    101c:	00 00       	nop
    101e:	00 00       	nop
    1020:	d6 02       	muls	r29, r22
    1022:	00 00       	nop
    1024:	80 00       	.word	0x0080	; ????
    1026:	00 00       	nop
    1028:	00 00       	nop
    102a:	00 00       	nop
    102c:	f6 02       	muls	r31, r22
    102e:	00 00       	nop
    1030:	80 00       	.word	0x0080	; ????
    1032:	00 00       	nop
    1034:	00 00       	nop
    1036:	00 00       	nop
    1038:	17 03       	mulsu	r17, r23
    103a:	00 00       	nop
    103c:	80 00       	.word	0x0080	; ????
    103e:	00 00       	nop
    1040:	00 00       	nop
    1042:	00 00       	nop
    1044:	32 03       	mulsu	r19, r18
    1046:	00 00       	nop
    1048:	80 00       	.word	0x0080	; ????
    104a:	00 00       	nop
    104c:	00 00       	nop
    104e:	00 00       	nop
    1050:	52 03       	mulsu	r21, r18
    1052:	00 00       	nop
    1054:	80 00       	.word	0x0080	; ????
    1056:	00 00       	nop
    1058:	00 00       	nop
    105a:	00 00       	nop
    105c:	77 03       	mulsu	r23, r23
    105e:	00 00       	nop
    1060:	80 00       	.word	0x0080	; ????
    1062:	00 00       	nop
    1064:	00 00       	nop
    1066:	00 00       	nop
    1068:	a1 03       	fmuls	r18, r17
    106a:	00 00       	nop
    106c:	80 00       	.word	0x0080	; ????
    106e:	00 00       	nop
    1070:	00 00       	nop
    1072:	00 00       	nop
    1074:	c5 03       	fmuls	r20, r21
    1076:	00 00       	nop
    1078:	80 00       	.word	0x0080	; ????
    107a:	00 00       	nop
    107c:	00 00       	nop
    107e:	00 00       	nop
    1080:	ee 03       	fmulsu	r22, r22
    1082:	00 00       	nop
    1084:	80 00       	.word	0x0080	; ????
    1086:	00 00       	nop
    1088:	00 00       	nop
    108a:	00 00       	nop
    108c:	1c 04       	cpc	r1, r12
    108e:	00 00       	nop
    1090:	80 00       	.word	0x0080	; ????
    1092:	00 00       	nop
    1094:	00 00       	nop
    1096:	00 00       	nop
    1098:	42 04       	cpc	r4, r2
    109a:	00 00       	nop
    109c:	80 00       	.word	0x0080	; ????
    109e:	00 00       	nop
    10a0:	00 00       	nop
    10a2:	00 00       	nop
    10a4:	62 04       	cpc	r6, r2
    10a6:	00 00       	nop
    10a8:	80 00       	.word	0x0080	; ????
    10aa:	00 00       	nop
    10ac:	00 00       	nop
    10ae:	00 00       	nop
    10b0:	87 04       	cpc	r8, r7
    10b2:	00 00       	nop
    10b4:	80 00       	.word	0x0080	; ????
    10b6:	00 00       	nop
    10b8:	00 00       	nop
    10ba:	00 00       	nop
    10bc:	b1 04       	cpc	r11, r1
    10be:	00 00       	nop
    10c0:	80 00       	.word	0x0080	; ????
    10c2:	00 00       	nop
    10c4:	00 00       	nop
    10c6:	00 00       	nop
    10c8:	e0 04       	cpc	r14, r0
    10ca:	00 00       	nop
    10cc:	80 00       	.word	0x0080	; ????
    10ce:	00 00       	nop
    10d0:	00 00       	nop
    10d2:	00 00       	nop
    10d4:	09 05       	cpc	r16, r9
    10d6:	00 00       	nop
    10d8:	80 00       	.word	0x0080	; ????
    10da:	00 00       	nop
    10dc:	00 00       	nop
    10de:	00 00       	nop
    10e0:	37 05       	cpc	r19, r7
    10e2:	00 00       	nop
    10e4:	80 00       	.word	0x0080	; ????
    10e6:	00 00       	nop
    10e8:	00 00       	nop
    10ea:	00 00       	nop
    10ec:	6a 05       	cpc	r22, r10
    10ee:	00 00       	nop
    10f0:	80 00       	.word	0x0080	; ????
    10f2:	00 00       	nop
    10f4:	00 00       	nop
    10f6:	00 00       	nop
    10f8:	8b 05       	cpc	r24, r11
    10fa:	00 00       	nop
    10fc:	80 00       	.word	0x0080	; ????
    10fe:	00 00       	nop
    1100:	00 00       	nop
    1102:	00 00       	nop
    1104:	a6 05       	cpc	r26, r6
    1106:	00 00       	nop
    1108:	80 00       	.word	0x0080	; ????
    110a:	00 00       	nop
    110c:	00 00       	nop
    110e:	00 00       	nop
    1110:	c6 05       	cpc	r28, r6
    1112:	00 00       	nop
    1114:	80 00       	.word	0x0080	; ????
    1116:	00 00       	nop
    1118:	00 00       	nop
    111a:	00 00       	nop
    111c:	eb 05       	cpc	r30, r11
    111e:	00 00       	nop
    1120:	80 00       	.word	0x0080	; ????
    1122:	00 00       	nop
    1124:	00 00       	nop
    1126:	00 00       	nop
    1128:	15 06       	cpc	r1, r21
    112a:	00 00       	nop
    112c:	80 00       	.word	0x0080	; ????
    112e:	00 00       	nop
    1130:	00 00       	nop
    1132:	00 00       	nop
    1134:	39 06       	cpc	r3, r25
    1136:	00 00       	nop
    1138:	80 00       	.word	0x0080	; ????
    113a:	00 00       	nop
    113c:	00 00       	nop
    113e:	00 00       	nop
    1140:	62 06       	cpc	r6, r18
    1142:	00 00       	nop
    1144:	80 00       	.word	0x0080	; ????
    1146:	00 00       	nop
    1148:	00 00       	nop
    114a:	00 00       	nop
    114c:	90 06       	cpc	r9, r16
    114e:	00 00       	nop
    1150:	80 00       	.word	0x0080	; ????
    1152:	00 00       	nop
    1154:	00 00       	nop
    1156:	00 00       	nop
    1158:	b6 06       	cpc	r11, r22
    115a:	00 00       	nop
    115c:	80 00       	.word	0x0080	; ????
    115e:	00 00       	nop
    1160:	00 00       	nop
    1162:	00 00       	nop
    1164:	d6 06       	cpc	r13, r22
    1166:	00 00       	nop
    1168:	80 00       	.word	0x0080	; ????
    116a:	00 00       	nop
    116c:	00 00       	nop
    116e:	00 00       	nop
    1170:	fb 06       	cpc	r15, r27
    1172:	00 00       	nop
    1174:	80 00       	.word	0x0080	; ????
    1176:	00 00       	nop
    1178:	00 00       	nop
    117a:	00 00       	nop
    117c:	25 07       	cpc	r18, r21
    117e:	00 00       	nop
    1180:	80 00       	.word	0x0080	; ????
    1182:	00 00       	nop
    1184:	00 00       	nop
    1186:	00 00       	nop
    1188:	54 07       	cpc	r21, r20
    118a:	00 00       	nop
    118c:	80 00       	.word	0x0080	; ????
    118e:	00 00       	nop
    1190:	00 00       	nop
    1192:	00 00       	nop
    1194:	7d 07       	cpc	r23, r29
    1196:	00 00       	nop
    1198:	80 00       	.word	0x0080	; ????
    119a:	00 00       	nop
    119c:	00 00       	nop
    119e:	00 00       	nop
    11a0:	ab 07       	cpc	r26, r27
    11a2:	00 00       	nop
    11a4:	80 00       	.word	0x0080	; ????
    11a6:	00 00       	nop
    11a8:	00 00       	nop
    11aa:	00 00       	nop
    11ac:	de 07       	cpc	r29, r30
    11ae:	00 00       	nop
    11b0:	80 00       	.word	0x0080	; ????
    11b2:	00 00       	nop
    11b4:	00 00       	nop
    11b6:	00 00       	nop
    11b8:	cb 0d       	add	r28, r11
    11ba:	00 00       	nop
    11bc:	24 00       	.word	0x0024	; ????
    11be:	04 00       	.word	0x0004	; ????
    11c0:	56 01       	movw	r10, r12
    11c2:	00 00       	nop
    11c4:	00 00       	nop
    11c6:	00 00       	nop
    11c8:	2e 00       	.word	0x002e	; ????
    11ca:	00 00       	nop
    11cc:	56 01       	movw	r10, r12
    11ce:	00 00       	nop
    11d0:	00 00       	nop
    11d2:	00 00       	nop
    11d4:	44 00       	.word	0x0044	; ????
    11d6:	04 00       	.word	0x0004	; ????
    11d8:	00 00       	nop
    11da:	00 00       	nop
    11dc:	00 00       	nop
    11de:	00 00       	nop
    11e0:	44 00       	.word	0x0044	; ????
    11e2:	05 00       	.word	0x0005	; ????
    11e4:	00 00       	nop
    11e6:	00 00       	nop
    11e8:	00 00       	nop
    11ea:	00 00       	nop
    11ec:	44 00       	.word	0x0044	; ????
    11ee:	06 00       	.word	0x0006	; ????
    11f0:	06 00       	.word	0x0006	; ????
    11f2:	00 00       	nop
    11f4:	00 00       	nop
    11f6:	00 00       	nop
    11f8:	44 00       	.word	0x0044	; ????
    11fa:	07 00       	.word	0x0007	; ????
    11fc:	0c 00       	.word	0x000c	; ????
    11fe:	00 00       	nop
    1200:	00 00       	nop
    1202:	00 00       	nop
    1204:	44 00       	.word	0x0044	; ????
    1206:	08 00       	.word	0x0008	; ????
    1208:	12 00       	.word	0x0012	; ????
    120a:	00 00       	nop
    120c:	00 00       	nop
    120e:	00 00       	nop
    1210:	44 00       	.word	0x0044	; ????
    1212:	09 00       	.word	0x0009	; ????
    1214:	18 00       	.word	0x0018	; ????
    1216:	00 00       	nop
    1218:	00 00       	nop
    121a:	00 00       	nop
    121c:	44 00       	.word	0x0044	; ????
    121e:	0a 00       	.word	0x000a	; ????
    1220:	1e 00       	.word	0x001e	; ????
    1222:	00 00       	nop
    1224:	00 00       	nop
    1226:	00 00       	nop
    1228:	44 00       	.word	0x0044	; ????
    122a:	0b 00       	.word	0x000b	; ????
    122c:	24 00       	.word	0x0024	; ????
    122e:	00 00       	nop
    1230:	00 00       	nop
    1232:	00 00       	nop
    1234:	44 00       	.word	0x0044	; ????
    1236:	0c 00       	.word	0x000c	; ????
    1238:	2a 00       	.word	0x002a	; ????
    123a:	00 00       	nop
    123c:	00 00       	nop
    123e:	00 00       	nop
    1240:	44 00       	.word	0x0044	; ????
    1242:	0d 00       	.word	0x000d	; ????
    1244:	30 00       	.word	0x0030	; ????
    1246:	00 00       	nop
    1248:	00 00       	nop
    124a:	00 00       	nop
    124c:	44 00       	.word	0x0044	; ????
    124e:	0e 00       	.word	0x000e	; ????
    1250:	36 00       	.word	0x0036	; ????
    1252:	00 00       	nop
    1254:	00 00       	nop
    1256:	00 00       	nop
    1258:	44 00       	.word	0x0044	; ????
    125a:	0f 00       	.word	0x000f	; ????
    125c:	3c 00       	.word	0x003c	; ????
    125e:	00 00       	nop
    1260:	00 00       	nop
    1262:	00 00       	nop
    1264:	44 00       	.word	0x0044	; ????
    1266:	10 00       	.word	0x0010	; ????
    1268:	42 00       	.word	0x0042	; ????
    126a:	00 00       	nop
    126c:	00 00       	nop
    126e:	00 00       	nop
    1270:	44 00       	.word	0x0044	; ????
    1272:	12 00       	.word	0x0012	; ????
    1274:	48 00       	.word	0x0048	; ????
    1276:	00 00       	nop
    1278:	00 00       	nop
    127a:	00 00       	nop
    127c:	24 00       	.word	0x0024	; ????
    127e:	00 00       	nop
    1280:	4e 00       	.word	0x004e	; ????
    1282:	00 00       	nop
    1284:	00 00       	nop
    1286:	00 00       	nop
    1288:	4e 00       	.word	0x004e	; ????
    128a:	00 00       	nop
    128c:	a4 01       	movw	r20, r8
    128e:	00 00       	nop
    1290:	00 00       	nop
    1292:	00 00       	nop
    1294:	64 00       	.word	0x0064	; ????
    1296:	00 00       	nop
    1298:	56 01       	movw	r10, r12
    129a:	00 00       	nop

Disassembly of section .stabstr:

00000000 <.stabstr>:
   0:	00 2f       	mov	r16, r16
   2:	74 6d       	ori	r23, 0xD4	; 212
   4:	70 2f       	mov	r23, r16
   6:	63 63       	ori	r22, 0x33	; 51
   8:	50 4c       	sbci	r21, 0xC0	; 192
   a:	35 43       	sbci	r19, 0x35	; 53
   c:	52 30       	cpi	r21, 0x02	; 2
   e:	2e 73       	andi	r18, 0x3E	; 62
  10:	00 76       	andi	r16, 0x60	; 96
  12:	6f 69       	ori	r22, 0x9F	; 159
  14:	64 3a       	cpi	r22, 0xA4	; 164
  16:	74 31       	cpi	r23, 0x14	; 20
  18:	3d 31       	cpi	r19, 0x1D	; 29
  1a:	00 5f       	subi	r16, 0xF0	; 240
  1c:	5f 76       	andi	r21, 0x6F	; 111
  1e:	65 63       	ori	r22, 0x35	; 53
  20:	74 6f       	ori	r23, 0xF4	; 244
  22:	72 73       	andi	r23, 0x32	; 50
  24:	3a 46       	sbci	r19, 0x6A	; 106
  26:	31 00       	.word	0x0031	; ????
  28:	2e 2e       	mov	r2, r30
  2a:	2f 2e       	mov	r2, r31
  2c:	2e 2f       	mov	r18, r30
  2e:	2e 2e       	mov	r2, r30
  30:	2f 2e       	mov	r2, r31
  32:	2e 2f       	mov	r18, r30
  34:	63 72       	andi	r22, 0x23	; 35
  36:	74 31       	cpi	r23, 0x14	; 20
  38:	2f 67       	ori	r18, 0x7F	; 127
  3a:	63 72       	andi	r22, 0x23	; 35
  3c:	74 31       	cpi	r23, 0x14	; 20
  3e:	2e 53       	subi	r18, 0x3E	; 62
  40:	00 5f       	subi	r16, 0xF0	; 240
  42:	5f 62       	ori	r21, 0x2F	; 47
  44:	61 64       	ori	r22, 0x41	; 65
  46:	5f 69       	ori	r21, 0x9F	; 159
  48:	6e 74       	andi	r22, 0x4E	; 78
  4a:	65 72       	andi	r22, 0x25	; 37
  4c:	72 75       	andi	r23, 0x52	; 82
  4e:	70 74       	andi	r23, 0x40	; 64
  50:	3a 46       	sbci	r19, 0x6A	; 106
  52:	31 00       	.word	0x0031	; ????
  54:	2f 68       	ori	r18, 0x8F	; 143
  56:	6f 6d       	ori	r22, 0xDF	; 223
  58:	65 2f       	mov	r22, r21
  5a:	68 61       	ori	r22, 0x18	; 24
  5c:	6e 73       	andi	r22, 0x3E	; 62
  5e:	2f 44       	sbci	r18, 0x4F	; 79
  60:	72 6f       	ori	r23, 0xF2	; 242
  62:	70 62       	ori	r23, 0x20	; 32
  64:	6f 78       	andi	r22, 0x8F	; 143
  66:	2f 72       	andi	r18, 0x2F	; 47
  68:	75 2f       	mov	r23, r21
  6a:	73 64       	ori	r23, 0x43	; 67
  6c:	72 2f       	mov	r23, r18
  6e:	75 73       	andi	r23, 0x35	; 53
  70:	69 6d       	ori	r22, 0xD9	; 217
  72:	2f 74       	andi	r18, 0x4F	; 79
  74:	65 73       	andi	r22, 0x35	; 53
  76:	74 73       	andi	r23, 0x34	; 52
  78:	2f 74       	andi	r18, 0x4F	; 79
  7a:	65 73       	andi	r22, 0x35	; 53
  7c:	74 5f       	subi	r23, 0xF4	; 244
  7e:	77 72       	andi	r23, 0x27	; 39
  80:	69 74       	andi	r22, 0x49	; 73
  82:	65 2f       	mov	r22, r21
  84:	00 61       	ori	r16, 0x10	; 16
  86:	76 72       	andi	r23, 0x26	; 38
  88:	2e 63       	ori	r18, 0x3E	; 62
  8a:	00 67       	ori	r16, 0x70	; 112
  8c:	63 63       	ori	r22, 0x33	; 51
  8e:	32 5f       	subi	r19, 0xF2	; 242
  90:	63 6f       	ori	r22, 0xF3	; 243
  92:	6d 70       	andi	r22, 0x0D	; 13
  94:	69 6c       	ori	r22, 0xC9	; 201
  96:	65 64       	ori	r22, 0x45	; 69
  98:	2e 00       	.word	0x002e	; ????
  9a:	69 6e       	ori	r22, 0xE9	; 233
  9c:	74 3a       	cpi	r23, 0xA4	; 164
  9e:	74 28       	or	r7, r4
  a0:	30 2c       	mov	r3, r0
  a2:	31 29       	or	r19, r1
  a4:	3d 72       	andi	r19, 0x2D	; 45
  a6:	28 30       	cpi	r18, 0x08	; 8
  a8:	2c 31       	cpi	r18, 0x1C	; 28
  aa:	29 3b       	cpi	r18, 0xB9	; 185
  ac:	2d 33       	cpi	r18, 0x3D	; 61
  ae:	32 37       	cpi	r19, 0x72	; 114
  b0:	36 38       	cpi	r19, 0x86	; 134
  b2:	3b 33       	cpi	r19, 0x3B	; 59
  b4:	32 37       	cpi	r19, 0x72	; 114
  b6:	36 37       	cpi	r19, 0x76	; 118
  b8:	3b 00       	.word	0x003b	; ????
  ba:	63 68       	ori	r22, 0x83	; 131
  bc:	61 72       	andi	r22, 0x21	; 33
  be:	3a 74       	andi	r19, 0x4A	; 74
  c0:	28 30       	cpi	r18, 0x08	; 8
  c2:	2c 32       	cpi	r18, 0x2C	; 44
  c4:	29 3d       	cpi	r18, 0xD9	; 217
  c6:	72 28       	or	r7, r2
  c8:	30 2c       	mov	r3, r0
  ca:	32 29       	or	r19, r2
  cc:	3b 30       	cpi	r19, 0x0B	; 11
  ce:	3b 31       	cpi	r19, 0x1B	; 27
  d0:	32 37       	cpi	r19, 0x72	; 114
  d2:	3b 00       	.word	0x003b	; ????
  d4:	6c 6f       	ori	r22, 0xFC	; 252
  d6:	6e 67       	ori	r22, 0x7E	; 126
  d8:	20 69       	ori	r18, 0x90	; 144
  da:	6e 74       	andi	r22, 0x4E	; 78
  dc:	3a 74       	andi	r19, 0x4A	; 74
  de:	28 30       	cpi	r18, 0x08	; 8
  e0:	2c 33       	cpi	r18, 0x3C	; 60
  e2:	29 3d       	cpi	r18, 0xD9	; 217
  e4:	40 73       	andi	r20, 0x30	; 48
  e6:	33 32       	cpi	r19, 0x23	; 35
  e8:	3b 72       	andi	r19, 0x2B	; 43
  ea:	28 30       	cpi	r18, 0x08	; 8
  ec:	2c 33       	cpi	r18, 0x3C	; 60
  ee:	29 3b       	cpi	r18, 0xB9	; 185
  f0:	30 32       	cpi	r19, 0x20	; 32
  f2:	30 30       	cpi	r19, 0x00	; 0
  f4:	30 30       	cpi	r19, 0x00	; 0
  f6:	30 30       	cpi	r19, 0x00	; 0
  f8:	30 30       	cpi	r19, 0x00	; 0
  fa:	30 30       	cpi	r19, 0x00	; 0
  fc:	3b 30       	cpi	r19, 0x0B	; 11
  fe:	31 37       	cpi	r19, 0x71	; 113
 100:	37 37       	cpi	r19, 0x77	; 119
 102:	37 37       	cpi	r19, 0x77	; 119
 104:	37 37       	cpi	r19, 0x77	; 119
 106:	37 37       	cpi	r19, 0x77	; 119
 108:	37 3b       	cpi	r19, 0xB7	; 183
 10a:	00 75       	andi	r16, 0x50	; 80
 10c:	6e 73       	andi	r22, 0x3E	; 62
 10e:	69 67       	ori	r22, 0x79	; 121
 110:	6e 65       	ori	r22, 0x5E	; 94
 112:	64 20       	and	r6, r4
 114:	69 6e       	ori	r22, 0xE9	; 233
 116:	74 3a       	cpi	r23, 0xA4	; 164
 118:	74 28       	or	r7, r4
 11a:	30 2c       	mov	r3, r0
 11c:	34 29       	or	r19, r4
 11e:	3d 72       	andi	r19, 0x2D	; 45
 120:	28 30       	cpi	r18, 0x08	; 8
 122:	2c 34       	cpi	r18, 0x4C	; 76
 124:	29 3b       	cpi	r18, 0xB9	; 185
 126:	30 3b       	cpi	r19, 0xB0	; 176
 128:	30 31       	cpi	r19, 0x10	; 16
 12a:	37 37       	cpi	r19, 0x77	; 119
 12c:	37 37       	cpi	r19, 0x77	; 119
 12e:	37 3b       	cpi	r19, 0xB7	; 183
 130:	00 6c       	ori	r16, 0xC0	; 192
 132:	6f 6e       	ori	r22, 0xEF	; 239
 134:	67 20       	and	r6, r7
 136:	75 6e       	ori	r23, 0xE5	; 229
 138:	73 69       	ori	r23, 0x93	; 147
 13a:	67 6e       	ori	r22, 0xE7	; 231
 13c:	65 64       	ori	r22, 0x45	; 69
 13e:	20 69       	ori	r18, 0x90	; 144
 140:	6e 74       	andi	r22, 0x4E	; 78
 142:	3a 74       	andi	r19, 0x4A	; 74
 144:	28 30       	cpi	r18, 0x08	; 8
 146:	2c 35       	cpi	r18, 0x5C	; 92
 148:	29 3d       	cpi	r18, 0xD9	; 217
 14a:	40 73       	andi	r20, 0x30	; 48
 14c:	33 32       	cpi	r19, 0x23	; 35
 14e:	3b 72       	andi	r19, 0x2B	; 43
 150:	28 30       	cpi	r18, 0x08	; 8
 152:	2c 35       	cpi	r18, 0x5C	; 92
 154:	29 3b       	cpi	r18, 0xB9	; 185
 156:	30 3b       	cpi	r19, 0xB0	; 176
 158:	30 33       	cpi	r19, 0x30	; 48
 15a:	37 37       	cpi	r19, 0x77	; 119
 15c:	37 37       	cpi	r19, 0x77	; 119
 15e:	37 37       	cpi	r19, 0x77	; 119
 160:	37 37       	cpi	r19, 0x77	; 119
 162:	37 37       	cpi	r19, 0x77	; 119
 164:	3b 00       	.word	0x003b	; ????
 166:	6c 6f       	ori	r22, 0xFC	; 252
 168:	6e 67       	ori	r22, 0x7E	; 126
 16a:	20 6c       	ori	r18, 0xC0	; 192
 16c:	6f 6e       	ori	r22, 0xEF	; 239
 16e:	67 20       	and	r6, r7
 170:	69 6e       	ori	r22, 0xE9	; 233
 172:	74 3a       	cpi	r23, 0xA4	; 164
 174:	74 28       	or	r7, r4
 176:	30 2c       	mov	r3, r0
 178:	36 29       	or	r19, r6
 17a:	3d 40       	sbci	r19, 0x0D	; 13
 17c:	73 36       	cpi	r23, 0x63	; 99
 17e:	34 3b       	cpi	r19, 0xB4	; 180
 180:	72 28       	or	r7, r2
 182:	30 2c       	mov	r3, r0
 184:	36 29       	or	r19, r6
 186:	3b 30       	cpi	r19, 0x0B	; 11
 188:	31 30       	cpi	r19, 0x01	; 1
 18a:	30 30       	cpi	r19, 0x00	; 0
 18c:	30 30       	cpi	r19, 0x00	; 0
 18e:	30 30       	cpi	r19, 0x00	; 0
 190:	30 30       	cpi	r19, 0x00	; 0
 192:	30 30       	cpi	r19, 0x00	; 0
 194:	30 30       	cpi	r19, 0x00	; 0
 196:	30 30       	cpi	r19, 0x00	; 0
 198:	30 30       	cpi	r19, 0x00	; 0
 19a:	30 30       	cpi	r19, 0x00	; 0
 19c:	30 30       	cpi	r19, 0x00	; 0
 19e:	3b 30       	cpi	r19, 0x0B	; 11
 1a0:	37 37       	cpi	r19, 0x77	; 119
 1a2:	37 37       	cpi	r19, 0x77	; 119
 1a4:	37 37       	cpi	r19, 0x77	; 119
 1a6:	37 37       	cpi	r19, 0x77	; 119
 1a8:	37 37       	cpi	r19, 0x77	; 119
 1aa:	37 37       	cpi	r19, 0x77	; 119
 1ac:	37 37       	cpi	r19, 0x77	; 119
 1ae:	37 37       	cpi	r19, 0x77	; 119
 1b0:	37 37       	cpi	r19, 0x77	; 119
 1b2:	37 37       	cpi	r19, 0x77	; 119
 1b4:	37 3b       	cpi	r19, 0xB7	; 183
 1b6:	00 6c       	ori	r16, 0xC0	; 192
 1b8:	6f 6e       	ori	r22, 0xEF	; 239
 1ba:	67 20       	and	r6, r7
 1bc:	6c 6f       	ori	r22, 0xFC	; 252
 1be:	6e 67       	ori	r22, 0x7E	; 126
 1c0:	20 75       	andi	r18, 0x50	; 80
 1c2:	6e 73       	andi	r22, 0x3E	; 62
 1c4:	69 67       	ori	r22, 0x79	; 121
 1c6:	6e 65       	ori	r22, 0x5E	; 94
 1c8:	64 20       	and	r6, r4
 1ca:	69 6e       	ori	r22, 0xE9	; 233
 1cc:	74 3a       	cpi	r23, 0xA4	; 164
 1ce:	74 28       	or	r7, r4
 1d0:	30 2c       	mov	r3, r0
 1d2:	37 29       	or	r19, r7
 1d4:	3d 40       	sbci	r19, 0x0D	; 13
 1d6:	73 36       	cpi	r23, 0x63	; 99
 1d8:	34 3b       	cpi	r19, 0xB4	; 180
 1da:	72 28       	or	r7, r2
 1dc:	30 2c       	mov	r3, r0
 1de:	37 29       	or	r19, r7
 1e0:	3b 30       	cpi	r19, 0x0B	; 11
 1e2:	3b 30       	cpi	r19, 0x0B	; 11
 1e4:	31 37       	cpi	r19, 0x71	; 113
 1e6:	37 37       	cpi	r19, 0x77	; 119
 1e8:	37 37       	cpi	r19, 0x77	; 119
 1ea:	37 37       	cpi	r19, 0x77	; 119
 1ec:	37 37       	cpi	r19, 0x77	; 119
 1ee:	37 37       	cpi	r19, 0x77	; 119
 1f0:	37 37       	cpi	r19, 0x77	; 119
 1f2:	37 37       	cpi	r19, 0x77	; 119
 1f4:	37 37       	cpi	r19, 0x77	; 119
 1f6:	37 37       	cpi	r19, 0x77	; 119
 1f8:	37 37       	cpi	r19, 0x77	; 119
 1fa:	3b 00       	.word	0x003b	; ????
 1fc:	73 68       	ori	r23, 0x83	; 131
 1fe:	6f 72       	andi	r22, 0x2F	; 47
 200:	74 20       	and	r7, r4
 202:	69 6e       	ori	r22, 0xE9	; 233
 204:	74 3a       	cpi	r23, 0xA4	; 164
 206:	74 28       	or	r7, r4
 208:	30 2c       	mov	r3, r0
 20a:	38 29       	or	r19, r8
 20c:	3d 72       	andi	r19, 0x2D	; 45
 20e:	28 30       	cpi	r18, 0x08	; 8
 210:	2c 38       	cpi	r18, 0x8C	; 140
 212:	29 3b       	cpi	r18, 0xB9	; 185
 214:	2d 33       	cpi	r18, 0x3D	; 61
 216:	32 37       	cpi	r19, 0x72	; 114
 218:	36 38       	cpi	r19, 0x86	; 134
 21a:	3b 33       	cpi	r19, 0x3B	; 59
 21c:	32 37       	cpi	r19, 0x72	; 114
 21e:	36 37       	cpi	r19, 0x76	; 118
 220:	3b 00       	.word	0x003b	; ????
 222:	73 68       	ori	r23, 0x83	; 131
 224:	6f 72       	andi	r22, 0x2F	; 47
 226:	74 20       	and	r7, r4
 228:	75 6e       	ori	r23, 0xE5	; 229
 22a:	73 69       	ori	r23, 0x93	; 147
 22c:	67 6e       	ori	r22, 0xE7	; 231
 22e:	65 64       	ori	r22, 0x45	; 69
 230:	20 69       	ori	r18, 0x90	; 144
 232:	6e 74       	andi	r22, 0x4E	; 78
 234:	3a 74       	andi	r19, 0x4A	; 74
 236:	28 30       	cpi	r18, 0x08	; 8
 238:	2c 39       	cpi	r18, 0x9C	; 156
 23a:	29 3d       	cpi	r18, 0xD9	; 217
 23c:	72 28       	or	r7, r2
 23e:	30 2c       	mov	r3, r0
 240:	39 29       	or	r19, r9
 242:	3b 30       	cpi	r19, 0x0B	; 11
 244:	3b 30       	cpi	r19, 0x0B	; 11
 246:	31 37       	cpi	r19, 0x71	; 113
 248:	37 37       	cpi	r19, 0x77	; 119
 24a:	37 37       	cpi	r19, 0x77	; 119
 24c:	3b 00       	.word	0x003b	; ????
 24e:	73 69       	ori	r23, 0x93	; 147
 250:	67 6e       	ori	r22, 0xE7	; 231
 252:	65 64       	ori	r22, 0x45	; 69
 254:	20 63       	ori	r18, 0x30	; 48
 256:	68 61       	ori	r22, 0x18	; 24
 258:	72 3a       	cpi	r23, 0xA2	; 162
 25a:	74 28       	or	r7, r4
 25c:	30 2c       	mov	r3, r0
 25e:	31 30       	cpi	r19, 0x01	; 1
 260:	29 3d       	cpi	r18, 0xD9	; 217
 262:	40 73       	andi	r20, 0x30	; 48
 264:	38 3b       	cpi	r19, 0xB8	; 184
 266:	72 28       	or	r7, r2
 268:	30 2c       	mov	r3, r0
 26a:	31 30       	cpi	r19, 0x01	; 1
 26c:	29 3b       	cpi	r18, 0xB9	; 185
 26e:	2d 31       	cpi	r18, 0x1D	; 29
 270:	32 38       	cpi	r19, 0x82	; 130
 272:	3b 31       	cpi	r19, 0x1B	; 27
 274:	32 37       	cpi	r19, 0x72	; 114
 276:	3b 00       	.word	0x003b	; ????
 278:	75 6e       	ori	r23, 0xE5	; 229
 27a:	73 69       	ori	r23, 0x93	; 147
 27c:	67 6e       	ori	r22, 0xE7	; 231
 27e:	65 64       	ori	r22, 0x45	; 69
 280:	20 63       	ori	r18, 0x30	; 48
 282:	68 61       	ori	r22, 0x18	; 24
 284:	72 3a       	cpi	r23, 0xA2	; 162
 286:	74 28       	or	r7, r4
 288:	30 2c       	mov	r3, r0
 28a:	31 31       	cpi	r19, 0x11	; 17
 28c:	29 3d       	cpi	r18, 0xD9	; 217
 28e:	40 73       	andi	r20, 0x30	; 48
 290:	38 3b       	cpi	r19, 0xB8	; 184
 292:	72 28       	or	r7, r2
 294:	30 2c       	mov	r3, r0
 296:	31 31       	cpi	r19, 0x11	; 17
 298:	29 3b       	cpi	r18, 0xB9	; 185
 29a:	30 3b       	cpi	r19, 0xB0	; 176
 29c:	32 35       	cpi	r19, 0x52	; 82
 29e:	35 3b       	cpi	r19, 0xB5	; 181
 2a0:	00 66       	ori	r16, 0x60	; 96
 2a2:	6c 6f       	ori	r22, 0xFC	; 252
 2a4:	61 74       	andi	r22, 0x41	; 65
 2a6:	3a 74       	andi	r19, 0x4A	; 74
 2a8:	28 30       	cpi	r18, 0x08	; 8
 2aa:	2c 31       	cpi	r18, 0x1C	; 28
 2ac:	32 29       	or	r19, r2
 2ae:	3d 72       	andi	r19, 0x2D	; 45
 2b0:	28 30       	cpi	r18, 0x08	; 8
 2b2:	2c 31       	cpi	r18, 0x1C	; 28
 2b4:	29 3b       	cpi	r18, 0xB9	; 185
 2b6:	34 3b       	cpi	r19, 0xB4	; 180
 2b8:	30 3b       	cpi	r19, 0xB0	; 176
 2ba:	00 64       	ori	r16, 0x40	; 64
 2bc:	6f 75       	andi	r22, 0x5F	; 95
 2be:	62 6c       	ori	r22, 0xC2	; 194
 2c0:	65 3a       	cpi	r22, 0xA5	; 165
 2c2:	74 28       	or	r7, r4
 2c4:	30 2c       	mov	r3, r0
 2c6:	31 33       	cpi	r19, 0x31	; 49
 2c8:	29 3d       	cpi	r18, 0xD9	; 217
 2ca:	72 28       	or	r7, r2
 2cc:	30 2c       	mov	r3, r0
 2ce:	31 29       	or	r19, r1
 2d0:	3b 34       	cpi	r19, 0x4B	; 75
 2d2:	3b 30       	cpi	r19, 0x0B	; 11
 2d4:	3b 00       	.word	0x003b	; ????
 2d6:	6c 6f       	ori	r22, 0xFC	; 252
 2d8:	6e 67       	ori	r22, 0x7E	; 126
 2da:	20 64       	ori	r18, 0x40	; 64
 2dc:	6f 75       	andi	r22, 0x5F	; 95
 2de:	62 6c       	ori	r22, 0xC2	; 194
 2e0:	65 3a       	cpi	r22, 0xA5	; 165
 2e2:	74 28       	or	r7, r4
 2e4:	30 2c       	mov	r3, r0
 2e6:	31 34       	cpi	r19, 0x41	; 65
 2e8:	29 3d       	cpi	r18, 0xD9	; 217
 2ea:	72 28       	or	r7, r2
 2ec:	30 2c       	mov	r3, r0
 2ee:	31 29       	or	r19, r1
 2f0:	3b 34       	cpi	r19, 0x4B	; 75
 2f2:	3b 30       	cpi	r19, 0x0B	; 11
 2f4:	3b 00       	.word	0x003b	; ????
 2f6:	73 68       	ori	r23, 0x83	; 131
 2f8:	6f 72       	andi	r22, 0x2F	; 47
 2fa:	74 20       	and	r7, r4
 2fc:	5f 46       	sbci	r21, 0x6F	; 111
 2fe:	72 61       	ori	r23, 0x12	; 18
 300:	63 74       	andi	r22, 0x43	; 67
 302:	3a 74       	andi	r19, 0x4A	; 74
 304:	28 30       	cpi	r18, 0x08	; 8
 306:	2c 31       	cpi	r18, 0x1C	; 28
 308:	35 29       	or	r19, r5
 30a:	3d 72       	andi	r19, 0x2D	; 45
 30c:	28 30       	cpi	r18, 0x08	; 8
 30e:	2c 31       	cpi	r18, 0x1C	; 28
 310:	29 3b       	cpi	r18, 0xB9	; 185
 312:	31 3b       	cpi	r19, 0xB1	; 177
 314:	30 3b       	cpi	r19, 0xB0	; 176
 316:	00 5f       	subi	r16, 0xF0	; 240
 318:	46 72       	andi	r20, 0x26	; 38
 31a:	61 63       	ori	r22, 0x31	; 49
 31c:	74 3a       	cpi	r23, 0xA4	; 164
 31e:	74 28       	or	r7, r4
 320:	30 2c       	mov	r3, r0
 322:	31 36       	cpi	r19, 0x61	; 97
 324:	29 3d       	cpi	r18, 0xD9	; 217
 326:	72 28       	or	r7, r2
 328:	30 2c       	mov	r3, r0
 32a:	31 29       	or	r19, r1
 32c:	3b 32       	cpi	r19, 0x2B	; 43
 32e:	3b 30       	cpi	r19, 0x0B	; 11
 330:	3b 00       	.word	0x003b	; ????
 332:	6c 6f       	ori	r22, 0xFC	; 252
 334:	6e 67       	ori	r22, 0x7E	; 126
 336:	20 5f       	subi	r18, 0xF0	; 240
 338:	46 72       	andi	r20, 0x26	; 38
 33a:	61 63       	ori	r22, 0x31	; 49
 33c:	74 3a       	cpi	r23, 0xA4	; 164
 33e:	74 28       	or	r7, r4
 340:	30 2c       	mov	r3, r0
 342:	31 37       	cpi	r19, 0x71	; 113
 344:	29 3d       	cpi	r18, 0xD9	; 217
 346:	72 28       	or	r7, r2
 348:	30 2c       	mov	r3, r0
 34a:	31 29       	or	r19, r1
 34c:	3b 34       	cpi	r19, 0x4B	; 75
 34e:	3b 30       	cpi	r19, 0x0B	; 11
 350:	3b 00       	.word	0x003b	; ????
 352:	6c 6f       	ori	r22, 0xFC	; 252
 354:	6e 67       	ori	r22, 0x7E	; 126
 356:	20 6c       	ori	r18, 0xC0	; 192
 358:	6f 6e       	ori	r22, 0xEF	; 239
 35a:	67 20       	and	r6, r7
 35c:	5f 46       	sbci	r21, 0x6F	; 111
 35e:	72 61       	ori	r23, 0x12	; 18
 360:	63 74       	andi	r22, 0x43	; 67
 362:	3a 74       	andi	r19, 0x4A	; 74
 364:	28 30       	cpi	r18, 0x08	; 8
 366:	2c 31       	cpi	r18, 0x1C	; 28
 368:	38 29       	or	r19, r8
 36a:	3d 72       	andi	r19, 0x2D	; 45
 36c:	28 30       	cpi	r18, 0x08	; 8
 36e:	2c 31       	cpi	r18, 0x1C	; 28
 370:	29 3b       	cpi	r18, 0xB9	; 185
 372:	38 3b       	cpi	r19, 0xB8	; 184
 374:	30 3b       	cpi	r19, 0xB0	; 176
 376:	00 75       	andi	r16, 0x50	; 80
 378:	6e 73       	andi	r22, 0x3E	; 62
 37a:	69 67       	ori	r22, 0x79	; 121
 37c:	6e 65       	ori	r22, 0x5E	; 94
 37e:	64 20       	and	r6, r4
 380:	73 68       	ori	r23, 0x83	; 131
 382:	6f 72       	andi	r22, 0x2F	; 47
 384:	74 20       	and	r7, r4
 386:	5f 46       	sbci	r21, 0x6F	; 111
 388:	72 61       	ori	r23, 0x12	; 18
 38a:	63 74       	andi	r22, 0x43	; 67
 38c:	3a 74       	andi	r19, 0x4A	; 74
 38e:	28 30       	cpi	r18, 0x08	; 8
 390:	2c 31       	cpi	r18, 0x1C	; 28
 392:	39 29       	or	r19, r9
 394:	3d 72       	andi	r19, 0x2D	; 45
 396:	28 30       	cpi	r18, 0x08	; 8
 398:	2c 31       	cpi	r18, 0x1C	; 28
 39a:	29 3b       	cpi	r18, 0xB9	; 185
 39c:	31 3b       	cpi	r19, 0xB1	; 177
 39e:	30 3b       	cpi	r19, 0xB0	; 176
 3a0:	00 75       	andi	r16, 0x50	; 80
 3a2:	6e 73       	andi	r22, 0x3E	; 62
 3a4:	69 67       	ori	r22, 0x79	; 121
 3a6:	6e 65       	ori	r22, 0x5E	; 94
 3a8:	64 20       	and	r6, r4
 3aa:	5f 46       	sbci	r21, 0x6F	; 111
 3ac:	72 61       	ori	r23, 0x12	; 18
 3ae:	63 74       	andi	r22, 0x43	; 67
 3b0:	3a 74       	andi	r19, 0x4A	; 74
 3b2:	28 30       	cpi	r18, 0x08	; 8
 3b4:	2c 32       	cpi	r18, 0x2C	; 44
 3b6:	30 29       	or	r19, r0
 3b8:	3d 72       	andi	r19, 0x2D	; 45
 3ba:	28 30       	cpi	r18, 0x08	; 8
 3bc:	2c 31       	cpi	r18, 0x1C	; 28
 3be:	29 3b       	cpi	r18, 0xB9	; 185
 3c0:	32 3b       	cpi	r19, 0xB2	; 178
 3c2:	30 3b       	cpi	r19, 0xB0	; 176
 3c4:	00 75       	andi	r16, 0x50	; 80
 3c6:	6e 73       	andi	r22, 0x3E	; 62
 3c8:	69 67       	ori	r22, 0x79	; 121
 3ca:	6e 65       	ori	r22, 0x5E	; 94
 3cc:	64 20       	and	r6, r4
 3ce:	6c 6f       	ori	r22, 0xFC	; 252
 3d0:	6e 67       	ori	r22, 0x7E	; 126
 3d2:	20 5f       	subi	r18, 0xF0	; 240
 3d4:	46 72       	andi	r20, 0x26	; 38
 3d6:	61 63       	ori	r22, 0x31	; 49
 3d8:	74 3a       	cpi	r23, 0xA4	; 164
 3da:	74 28       	or	r7, r4
 3dc:	30 2c       	mov	r3, r0
 3de:	32 31       	cpi	r19, 0x12	; 18
 3e0:	29 3d       	cpi	r18, 0xD9	; 217
 3e2:	72 28       	or	r7, r2
 3e4:	30 2c       	mov	r3, r0
 3e6:	31 29       	or	r19, r1
 3e8:	3b 34       	cpi	r19, 0x4B	; 75
 3ea:	3b 30       	cpi	r19, 0x0B	; 11
 3ec:	3b 00       	.word	0x003b	; ????
 3ee:	75 6e       	ori	r23, 0xE5	; 229
 3f0:	73 69       	ori	r23, 0x93	; 147
 3f2:	67 6e       	ori	r22, 0xE7	; 231
 3f4:	65 64       	ori	r22, 0x45	; 69
 3f6:	20 6c       	ori	r18, 0xC0	; 192
 3f8:	6f 6e       	ori	r22, 0xEF	; 239
 3fa:	67 20       	and	r6, r7
 3fc:	6c 6f       	ori	r22, 0xFC	; 252
 3fe:	6e 67       	ori	r22, 0x7E	; 126
 400:	20 5f       	subi	r18, 0xF0	; 240
 402:	46 72       	andi	r20, 0x26	; 38
 404:	61 63       	ori	r22, 0x31	; 49
 406:	74 3a       	cpi	r23, 0xA4	; 164
 408:	74 28       	or	r7, r4
 40a:	30 2c       	mov	r3, r0
 40c:	32 32       	cpi	r19, 0x22	; 34
 40e:	29 3d       	cpi	r18, 0xD9	; 217
 410:	72 28       	or	r7, r2
 412:	30 2c       	mov	r3, r0
 414:	31 29       	or	r19, r1
 416:	3b 38       	cpi	r19, 0x8B	; 139
 418:	3b 30       	cpi	r19, 0x0B	; 11
 41a:	3b 00       	.word	0x003b	; ????
 41c:	5f 53       	subi	r21, 0x3F	; 63
 41e:	61 74       	andi	r22, 0x41	; 65
 420:	20 73       	andi	r18, 0x30	; 48
 422:	68 6f       	ori	r22, 0xF8	; 248
 424:	72 74       	andi	r23, 0x42	; 66
 426:	20 5f       	subi	r18, 0xF0	; 240
 428:	46 72       	andi	r20, 0x26	; 38
 42a:	61 63       	ori	r22, 0x31	; 49
 42c:	74 3a       	cpi	r23, 0xA4	; 164
 42e:	74 28       	or	r7, r4
 430:	30 2c       	mov	r3, r0
 432:	32 33       	cpi	r19, 0x32	; 50
 434:	29 3d       	cpi	r18, 0xD9	; 217
 436:	72 28       	or	r7, r2
 438:	30 2c       	mov	r3, r0
 43a:	31 29       	or	r19, r1
 43c:	3b 31       	cpi	r19, 0x1B	; 27
 43e:	3b 30       	cpi	r19, 0x0B	; 11
 440:	3b 00       	.word	0x003b	; ????
 442:	5f 53       	subi	r21, 0x3F	; 63
 444:	61 74       	andi	r22, 0x41	; 65
 446:	20 5f       	subi	r18, 0xF0	; 240
 448:	46 72       	andi	r20, 0x26	; 38
 44a:	61 63       	ori	r22, 0x31	; 49
 44c:	74 3a       	cpi	r23, 0xA4	; 164
 44e:	74 28       	or	r7, r4
 450:	30 2c       	mov	r3, r0
 452:	32 34       	cpi	r19, 0x42	; 66
 454:	29 3d       	cpi	r18, 0xD9	; 217
 456:	72 28       	or	r7, r2
 458:	30 2c       	mov	r3, r0
 45a:	31 29       	or	r19, r1
 45c:	3b 32       	cpi	r19, 0x2B	; 43
 45e:	3b 30       	cpi	r19, 0x0B	; 11
 460:	3b 00       	.word	0x003b	; ????
 462:	5f 53       	subi	r21, 0x3F	; 63
 464:	61 74       	andi	r22, 0x41	; 65
 466:	20 6c       	ori	r18, 0xC0	; 192
 468:	6f 6e       	ori	r22, 0xEF	; 239
 46a:	67 20       	and	r6, r7
 46c:	5f 46       	sbci	r21, 0x6F	; 111
 46e:	72 61       	ori	r23, 0x12	; 18
 470:	63 74       	andi	r22, 0x43	; 67
 472:	3a 74       	andi	r19, 0x4A	; 74
 474:	28 30       	cpi	r18, 0x08	; 8
 476:	2c 32       	cpi	r18, 0x2C	; 44
 478:	35 29       	or	r19, r5
 47a:	3d 72       	andi	r19, 0x2D	; 45
 47c:	28 30       	cpi	r18, 0x08	; 8
 47e:	2c 31       	cpi	r18, 0x1C	; 28
 480:	29 3b       	cpi	r18, 0xB9	; 185
 482:	34 3b       	cpi	r19, 0xB4	; 180
 484:	30 3b       	cpi	r19, 0xB0	; 176
 486:	00 5f       	subi	r16, 0xF0	; 240
 488:	53 61       	ori	r21, 0x13	; 19
 48a:	74 20       	and	r7, r4
 48c:	6c 6f       	ori	r22, 0xFC	; 252
 48e:	6e 67       	ori	r22, 0x7E	; 126
 490:	20 6c       	ori	r18, 0xC0	; 192
 492:	6f 6e       	ori	r22, 0xEF	; 239
 494:	67 20       	and	r6, r7
 496:	5f 46       	sbci	r21, 0x6F	; 111
 498:	72 61       	ori	r23, 0x12	; 18
 49a:	63 74       	andi	r22, 0x43	; 67
 49c:	3a 74       	andi	r19, 0x4A	; 74
 49e:	28 30       	cpi	r18, 0x08	; 8
 4a0:	2c 32       	cpi	r18, 0x2C	; 44
 4a2:	36 29       	or	r19, r6
 4a4:	3d 72       	andi	r19, 0x2D	; 45
 4a6:	28 30       	cpi	r18, 0x08	; 8
 4a8:	2c 31       	cpi	r18, 0x1C	; 28
 4aa:	29 3b       	cpi	r18, 0xB9	; 185
 4ac:	38 3b       	cpi	r19, 0xB8	; 184
 4ae:	30 3b       	cpi	r19, 0xB0	; 176
 4b0:	00 5f       	subi	r16, 0xF0	; 240
 4b2:	53 61       	ori	r21, 0x13	; 19
 4b4:	74 20       	and	r7, r4
 4b6:	75 6e       	ori	r23, 0xE5	; 229
 4b8:	73 69       	ori	r23, 0x93	; 147
 4ba:	67 6e       	ori	r22, 0xE7	; 231
 4bc:	65 64       	ori	r22, 0x45	; 69
 4be:	20 73       	andi	r18, 0x30	; 48
 4c0:	68 6f       	ori	r22, 0xF8	; 248
 4c2:	72 74       	andi	r23, 0x42	; 66
 4c4:	20 5f       	subi	r18, 0xF0	; 240
 4c6:	46 72       	andi	r20, 0x26	; 38
 4c8:	61 63       	ori	r22, 0x31	; 49
 4ca:	74 3a       	cpi	r23, 0xA4	; 164
 4cc:	74 28       	or	r7, r4
 4ce:	30 2c       	mov	r3, r0
 4d0:	32 37       	cpi	r19, 0x72	; 114
 4d2:	29 3d       	cpi	r18, 0xD9	; 217
 4d4:	72 28       	or	r7, r2
 4d6:	30 2c       	mov	r3, r0
 4d8:	31 29       	or	r19, r1
 4da:	3b 31       	cpi	r19, 0x1B	; 27
 4dc:	3b 30       	cpi	r19, 0x0B	; 11
 4de:	3b 00       	.word	0x003b	; ????
 4e0:	5f 53       	subi	r21, 0x3F	; 63
 4e2:	61 74       	andi	r22, 0x41	; 65
 4e4:	20 75       	andi	r18, 0x50	; 80
 4e6:	6e 73       	andi	r22, 0x3E	; 62
 4e8:	69 67       	ori	r22, 0x79	; 121
 4ea:	6e 65       	ori	r22, 0x5E	; 94
 4ec:	64 20       	and	r6, r4
 4ee:	5f 46       	sbci	r21, 0x6F	; 111
 4f0:	72 61       	ori	r23, 0x12	; 18
 4f2:	63 74       	andi	r22, 0x43	; 67
 4f4:	3a 74       	andi	r19, 0x4A	; 74
 4f6:	28 30       	cpi	r18, 0x08	; 8
 4f8:	2c 32       	cpi	r18, 0x2C	; 44
 4fa:	38 29       	or	r19, r8
 4fc:	3d 72       	andi	r19, 0x2D	; 45
 4fe:	28 30       	cpi	r18, 0x08	; 8
 500:	2c 31       	cpi	r18, 0x1C	; 28
 502:	29 3b       	cpi	r18, 0xB9	; 185
 504:	32 3b       	cpi	r19, 0xB2	; 178
 506:	30 3b       	cpi	r19, 0xB0	; 176
 508:	00 5f       	subi	r16, 0xF0	; 240
 50a:	53 61       	ori	r21, 0x13	; 19
 50c:	74 20       	and	r7, r4
 50e:	75 6e       	ori	r23, 0xE5	; 229
 510:	73 69       	ori	r23, 0x93	; 147
 512:	67 6e       	ori	r22, 0xE7	; 231
 514:	65 64       	ori	r22, 0x45	; 69
 516:	20 6c       	ori	r18, 0xC0	; 192
 518:	6f 6e       	ori	r22, 0xEF	; 239
 51a:	67 20       	and	r6, r7
 51c:	5f 46       	sbci	r21, 0x6F	; 111
 51e:	72 61       	ori	r23, 0x12	; 18
 520:	63 74       	andi	r22, 0x43	; 67
 522:	3a 74       	andi	r19, 0x4A	; 74
 524:	28 30       	cpi	r18, 0x08	; 8
 526:	2c 32       	cpi	r18, 0x2C	; 44
 528:	39 29       	or	r19, r9
 52a:	3d 72       	andi	r19, 0x2D	; 45
 52c:	28 30       	cpi	r18, 0x08	; 8
 52e:	2c 31       	cpi	r18, 0x1C	; 28
 530:	29 3b       	cpi	r18, 0xB9	; 185
 532:	34 3b       	cpi	r19, 0xB4	; 180
 534:	30 3b       	cpi	r19, 0xB0	; 176
 536:	00 5f       	subi	r16, 0xF0	; 240
 538:	53 61       	ori	r21, 0x13	; 19
 53a:	74 20       	and	r7, r4
 53c:	75 6e       	ori	r23, 0xE5	; 229
 53e:	73 69       	ori	r23, 0x93	; 147
 540:	67 6e       	ori	r22, 0xE7	; 231
 542:	65 64       	ori	r22, 0x45	; 69
 544:	20 6c       	ori	r18, 0xC0	; 192
 546:	6f 6e       	ori	r22, 0xEF	; 239
 548:	67 20       	and	r6, r7
 54a:	6c 6f       	ori	r22, 0xFC	; 252
 54c:	6e 67       	ori	r22, 0x7E	; 126
 54e:	20 5f       	subi	r18, 0xF0	; 240
 550:	46 72       	andi	r20, 0x26	; 38
 552:	61 63       	ori	r22, 0x31	; 49
 554:	74 3a       	cpi	r23, 0xA4	; 164
 556:	74 28       	or	r7, r4
 558:	30 2c       	mov	r3, r0
 55a:	33 30       	cpi	r19, 0x03	; 3
 55c:	29 3d       	cpi	r18, 0xD9	; 217
 55e:	72 28       	or	r7, r2
 560:	30 2c       	mov	r3, r0
 562:	31 29       	or	r19, r1
 564:	3b 38       	cpi	r19, 0x8B	; 139
 566:	3b 30       	cpi	r19, 0x0B	; 11
 568:	3b 00       	.word	0x003b	; ????
 56a:	73 68       	ori	r23, 0x83	; 131
 56c:	6f 72       	andi	r22, 0x2F	; 47
 56e:	74 20       	and	r7, r4
 570:	5f 41       	sbci	r21, 0x1F	; 31
 572:	63 63       	ori	r22, 0x33	; 51
 574:	75 6d       	ori	r23, 0xD5	; 213
 576:	3a 74       	andi	r19, 0x4A	; 74
 578:	28 30       	cpi	r18, 0x08	; 8
 57a:	2c 33       	cpi	r18, 0x3C	; 60
 57c:	31 29       	or	r19, r1
 57e:	3d 72       	andi	r19, 0x2D	; 45
 580:	28 30       	cpi	r18, 0x08	; 8
 582:	2c 31       	cpi	r18, 0x1C	; 28
 584:	29 3b       	cpi	r18, 0xB9	; 185
 586:	32 3b       	cpi	r19, 0xB2	; 178
 588:	30 3b       	cpi	r19, 0xB0	; 176
 58a:	00 5f       	subi	r16, 0xF0	; 240
 58c:	41 63       	ori	r20, 0x31	; 49
 58e:	63 75       	andi	r22, 0x53	; 83
 590:	6d 3a       	cpi	r22, 0xAD	; 173
 592:	74 28       	or	r7, r4
 594:	30 2c       	mov	r3, r0
 596:	33 32       	cpi	r19, 0x23	; 35
 598:	29 3d       	cpi	r18, 0xD9	; 217
 59a:	72 28       	or	r7, r2
 59c:	30 2c       	mov	r3, r0
 59e:	31 29       	or	r19, r1
 5a0:	3b 34       	cpi	r19, 0x4B	; 75
 5a2:	3b 30       	cpi	r19, 0x0B	; 11
 5a4:	3b 00       	.word	0x003b	; ????
 5a6:	6c 6f       	ori	r22, 0xFC	; 252
 5a8:	6e 67       	ori	r22, 0x7E	; 126
 5aa:	20 5f       	subi	r18, 0xF0	; 240
 5ac:	41 63       	ori	r20, 0x31	; 49
 5ae:	63 75       	andi	r22, 0x53	; 83
 5b0:	6d 3a       	cpi	r22, 0xAD	; 173
 5b2:	74 28       	or	r7, r4
 5b4:	30 2c       	mov	r3, r0
 5b6:	33 33       	cpi	r19, 0x33	; 51
 5b8:	29 3d       	cpi	r18, 0xD9	; 217
 5ba:	72 28       	or	r7, r2
 5bc:	30 2c       	mov	r3, r0
 5be:	31 29       	or	r19, r1
 5c0:	3b 38       	cpi	r19, 0x8B	; 139
 5c2:	3b 30       	cpi	r19, 0x0B	; 11
 5c4:	3b 00       	.word	0x003b	; ????
 5c6:	6c 6f       	ori	r22, 0xFC	; 252
 5c8:	6e 67       	ori	r22, 0x7E	; 126
 5ca:	20 6c       	ori	r18, 0xC0	; 192
 5cc:	6f 6e       	ori	r22, 0xEF	; 239
 5ce:	67 20       	and	r6, r7
 5d0:	5f 41       	sbci	r21, 0x1F	; 31
 5d2:	63 63       	ori	r22, 0x33	; 51
 5d4:	75 6d       	ori	r23, 0xD5	; 213
 5d6:	3a 74       	andi	r19, 0x4A	; 74
 5d8:	28 30       	cpi	r18, 0x08	; 8
 5da:	2c 33       	cpi	r18, 0x3C	; 60
 5dc:	34 29       	or	r19, r4
 5de:	3d 72       	andi	r19, 0x2D	; 45
 5e0:	28 30       	cpi	r18, 0x08	; 8
 5e2:	2c 31       	cpi	r18, 0x1C	; 28
 5e4:	29 3b       	cpi	r18, 0xB9	; 185
 5e6:	38 3b       	cpi	r19, 0xB8	; 184
 5e8:	30 3b       	cpi	r19, 0xB0	; 176
 5ea:	00 75       	andi	r16, 0x50	; 80
 5ec:	6e 73       	andi	r22, 0x3E	; 62
 5ee:	69 67       	ori	r22, 0x79	; 121
 5f0:	6e 65       	ori	r22, 0x5E	; 94
 5f2:	64 20       	and	r6, r4
 5f4:	73 68       	ori	r23, 0x83	; 131
 5f6:	6f 72       	andi	r22, 0x2F	; 47
 5f8:	74 20       	and	r7, r4
 5fa:	5f 41       	sbci	r21, 0x1F	; 31
 5fc:	63 63       	ori	r22, 0x33	; 51
 5fe:	75 6d       	ori	r23, 0xD5	; 213
 600:	3a 74       	andi	r19, 0x4A	; 74
 602:	28 30       	cpi	r18, 0x08	; 8
 604:	2c 33       	cpi	r18, 0x3C	; 60
 606:	35 29       	or	r19, r5
 608:	3d 72       	andi	r19, 0x2D	; 45
 60a:	28 30       	cpi	r18, 0x08	; 8
 60c:	2c 31       	cpi	r18, 0x1C	; 28
 60e:	29 3b       	cpi	r18, 0xB9	; 185
 610:	32 3b       	cpi	r19, 0xB2	; 178
 612:	30 3b       	cpi	r19, 0xB0	; 176
 614:	00 75       	andi	r16, 0x50	; 80
 616:	6e 73       	andi	r22, 0x3E	; 62
 618:	69 67       	ori	r22, 0x79	; 121
 61a:	6e 65       	ori	r22, 0x5E	; 94
 61c:	64 20       	and	r6, r4
 61e:	5f 41       	sbci	r21, 0x1F	; 31
 620:	63 63       	ori	r22, 0x33	; 51
 622:	75 6d       	ori	r23, 0xD5	; 213
 624:	3a 74       	andi	r19, 0x4A	; 74
 626:	28 30       	cpi	r18, 0x08	; 8
 628:	2c 33       	cpi	r18, 0x3C	; 60
 62a:	36 29       	or	r19, r6
 62c:	3d 72       	andi	r19, 0x2D	; 45
 62e:	28 30       	cpi	r18, 0x08	; 8
 630:	2c 31       	cpi	r18, 0x1C	; 28
 632:	29 3b       	cpi	r18, 0xB9	; 185
 634:	34 3b       	cpi	r19, 0xB4	; 180
 636:	30 3b       	cpi	r19, 0xB0	; 176
 638:	00 75       	andi	r16, 0x50	; 80
 63a:	6e 73       	andi	r22, 0x3E	; 62
 63c:	69 67       	ori	r22, 0x79	; 121
 63e:	6e 65       	ori	r22, 0x5E	; 94
 640:	64 20       	and	r6, r4
 642:	6c 6f       	ori	r22, 0xFC	; 252
 644:	6e 67       	ori	r22, 0x7E	; 126
 646:	20 5f       	subi	r18, 0xF0	; 240
 648:	41 63       	ori	r20, 0x31	; 49
 64a:	63 75       	andi	r22, 0x53	; 83
 64c:	6d 3a       	cpi	r22, 0xAD	; 173
 64e:	74 28       	or	r7, r4
 650:	30 2c       	mov	r3, r0
 652:	33 37       	cpi	r19, 0x73	; 115
 654:	29 3d       	cpi	r18, 0xD9	; 217
 656:	72 28       	or	r7, r2
 658:	30 2c       	mov	r3, r0
 65a:	31 29       	or	r19, r1
 65c:	3b 38       	cpi	r19, 0x8B	; 139
 65e:	3b 30       	cpi	r19, 0x0B	; 11
 660:	3b 00       	.word	0x003b	; ????
 662:	75 6e       	ori	r23, 0xE5	; 229
 664:	73 69       	ori	r23, 0x93	; 147
 666:	67 6e       	ori	r22, 0xE7	; 231
 668:	65 64       	ori	r22, 0x45	; 69
 66a:	20 6c       	ori	r18, 0xC0	; 192
 66c:	6f 6e       	ori	r22, 0xEF	; 239
 66e:	67 20       	and	r6, r7
 670:	6c 6f       	ori	r22, 0xFC	; 252
 672:	6e 67       	ori	r22, 0x7E	; 126
 674:	20 5f       	subi	r18, 0xF0	; 240
 676:	41 63       	ori	r20, 0x31	; 49
 678:	63 75       	andi	r22, 0x53	; 83
 67a:	6d 3a       	cpi	r22, 0xAD	; 173
 67c:	74 28       	or	r7, r4
 67e:	30 2c       	mov	r3, r0
 680:	33 38       	cpi	r19, 0x83	; 131
 682:	29 3d       	cpi	r18, 0xD9	; 217
 684:	72 28       	or	r7, r2
 686:	30 2c       	mov	r3, r0
 688:	31 29       	or	r19, r1
 68a:	3b 38       	cpi	r19, 0x8B	; 139
 68c:	3b 30       	cpi	r19, 0x0B	; 11
 68e:	3b 00       	.word	0x003b	; ????
 690:	5f 53       	subi	r21, 0x3F	; 63
 692:	61 74       	andi	r22, 0x41	; 65
 694:	20 73       	andi	r18, 0x30	; 48
 696:	68 6f       	ori	r22, 0xF8	; 248
 698:	72 74       	andi	r23, 0x42	; 66
 69a:	20 5f       	subi	r18, 0xF0	; 240
 69c:	41 63       	ori	r20, 0x31	; 49
 69e:	63 75       	andi	r22, 0x53	; 83
 6a0:	6d 3a       	cpi	r22, 0xAD	; 173
 6a2:	74 28       	or	r7, r4
 6a4:	30 2c       	mov	r3, r0
 6a6:	33 39       	cpi	r19, 0x93	; 147
 6a8:	29 3d       	cpi	r18, 0xD9	; 217
 6aa:	72 28       	or	r7, r2
 6ac:	30 2c       	mov	r3, r0
 6ae:	31 29       	or	r19, r1
 6b0:	3b 32       	cpi	r19, 0x2B	; 43
 6b2:	3b 30       	cpi	r19, 0x0B	; 11
 6b4:	3b 00       	.word	0x003b	; ????
 6b6:	5f 53       	subi	r21, 0x3F	; 63
 6b8:	61 74       	andi	r22, 0x41	; 65
 6ba:	20 5f       	subi	r18, 0xF0	; 240
 6bc:	41 63       	ori	r20, 0x31	; 49
 6be:	63 75       	andi	r22, 0x53	; 83
 6c0:	6d 3a       	cpi	r22, 0xAD	; 173
 6c2:	74 28       	or	r7, r4
 6c4:	30 2c       	mov	r3, r0
 6c6:	34 30       	cpi	r19, 0x04	; 4
 6c8:	29 3d       	cpi	r18, 0xD9	; 217
 6ca:	72 28       	or	r7, r2
 6cc:	30 2c       	mov	r3, r0
 6ce:	31 29       	or	r19, r1
 6d0:	3b 34       	cpi	r19, 0x4B	; 75
 6d2:	3b 30       	cpi	r19, 0x0B	; 11
 6d4:	3b 00       	.word	0x003b	; ????
 6d6:	5f 53       	subi	r21, 0x3F	; 63
 6d8:	61 74       	andi	r22, 0x41	; 65
 6da:	20 6c       	ori	r18, 0xC0	; 192
 6dc:	6f 6e       	ori	r22, 0xEF	; 239
 6de:	67 20       	and	r6, r7
 6e0:	5f 41       	sbci	r21, 0x1F	; 31
 6e2:	63 63       	ori	r22, 0x33	; 51
 6e4:	75 6d       	ori	r23, 0xD5	; 213
 6e6:	3a 74       	andi	r19, 0x4A	; 74
 6e8:	28 30       	cpi	r18, 0x08	; 8
 6ea:	2c 34       	cpi	r18, 0x4C	; 76
 6ec:	31 29       	or	r19, r1
 6ee:	3d 72       	andi	r19, 0x2D	; 45
 6f0:	28 30       	cpi	r18, 0x08	; 8
 6f2:	2c 31       	cpi	r18, 0x1C	; 28
 6f4:	29 3b       	cpi	r18, 0xB9	; 185
 6f6:	38 3b       	cpi	r19, 0xB8	; 184
 6f8:	30 3b       	cpi	r19, 0xB0	; 176
 6fa:	00 5f       	subi	r16, 0xF0	; 240
 6fc:	53 61       	ori	r21, 0x13	; 19
 6fe:	74 20       	and	r7, r4
 700:	6c 6f       	ori	r22, 0xFC	; 252
 702:	6e 67       	ori	r22, 0x7E	; 126
 704:	20 6c       	ori	r18, 0xC0	; 192
 706:	6f 6e       	ori	r22, 0xEF	; 239
 708:	67 20       	and	r6, r7
 70a:	5f 41       	sbci	r21, 0x1F	; 31
 70c:	63 63       	ori	r22, 0x33	; 51
 70e:	75 6d       	ori	r23, 0xD5	; 213
 710:	3a 74       	andi	r19, 0x4A	; 74
 712:	28 30       	cpi	r18, 0x08	; 8
 714:	2c 34       	cpi	r18, 0x4C	; 76
 716:	32 29       	or	r19, r2
 718:	3d 72       	andi	r19, 0x2D	; 45
 71a:	28 30       	cpi	r18, 0x08	; 8
 71c:	2c 31       	cpi	r18, 0x1C	; 28
 71e:	29 3b       	cpi	r18, 0xB9	; 185
 720:	38 3b       	cpi	r19, 0xB8	; 184
 722:	30 3b       	cpi	r19, 0xB0	; 176
 724:	00 5f       	subi	r16, 0xF0	; 240
 726:	53 61       	ori	r21, 0x13	; 19
 728:	74 20       	and	r7, r4
 72a:	75 6e       	ori	r23, 0xE5	; 229
 72c:	73 69       	ori	r23, 0x93	; 147
 72e:	67 6e       	ori	r22, 0xE7	; 231
 730:	65 64       	ori	r22, 0x45	; 69
 732:	20 73       	andi	r18, 0x30	; 48
 734:	68 6f       	ori	r22, 0xF8	; 248
 736:	72 74       	andi	r23, 0x42	; 66
 738:	20 5f       	subi	r18, 0xF0	; 240
 73a:	41 63       	ori	r20, 0x31	; 49
 73c:	63 75       	andi	r22, 0x53	; 83
 73e:	6d 3a       	cpi	r22, 0xAD	; 173
 740:	74 28       	or	r7, r4
 742:	30 2c       	mov	r3, r0
 744:	34 33       	cpi	r19, 0x34	; 52
 746:	29 3d       	cpi	r18, 0xD9	; 217
 748:	72 28       	or	r7, r2
 74a:	30 2c       	mov	r3, r0
 74c:	31 29       	or	r19, r1
 74e:	3b 32       	cpi	r19, 0x2B	; 43
 750:	3b 30       	cpi	r19, 0x0B	; 11
 752:	3b 00       	.word	0x003b	; ????
 754:	5f 53       	subi	r21, 0x3F	; 63
 756:	61 74       	andi	r22, 0x41	; 65
 758:	20 75       	andi	r18, 0x50	; 80
 75a:	6e 73       	andi	r22, 0x3E	; 62
 75c:	69 67       	ori	r22, 0x79	; 121
 75e:	6e 65       	ori	r22, 0x5E	; 94
 760:	64 20       	and	r6, r4
 762:	5f 41       	sbci	r21, 0x1F	; 31
 764:	63 63       	ori	r22, 0x33	; 51
 766:	75 6d       	ori	r23, 0xD5	; 213
 768:	3a 74       	andi	r19, 0x4A	; 74
 76a:	28 30       	cpi	r18, 0x08	; 8
 76c:	2c 34       	cpi	r18, 0x4C	; 76
 76e:	34 29       	or	r19, r4
 770:	3d 72       	andi	r19, 0x2D	; 45
 772:	28 30       	cpi	r18, 0x08	; 8
 774:	2c 31       	cpi	r18, 0x1C	; 28
 776:	29 3b       	cpi	r18, 0xB9	; 185
 778:	34 3b       	cpi	r19, 0xB4	; 180
 77a:	30 3b       	cpi	r19, 0xB0	; 176
 77c:	00 5f       	subi	r16, 0xF0	; 240
 77e:	53 61       	ori	r21, 0x13	; 19
 780:	74 20       	and	r7, r4
 782:	75 6e       	ori	r23, 0xE5	; 229
 784:	73 69       	ori	r23, 0x93	; 147
 786:	67 6e       	ori	r22, 0xE7	; 231
 788:	65 64       	ori	r22, 0x45	; 69
 78a:	20 6c       	ori	r18, 0xC0	; 192
 78c:	6f 6e       	ori	r22, 0xEF	; 239
 78e:	67 20       	and	r6, r7
 790:	5f 41       	sbci	r21, 0x1F	; 31
 792:	63 63       	ori	r22, 0x33	; 51
 794:	75 6d       	ori	r23, 0xD5	; 213
 796:	3a 74       	andi	r19, 0x4A	; 74
 798:	28 30       	cpi	r18, 0x08	; 8
 79a:	2c 34       	cpi	r18, 0x4C	; 76
 79c:	35 29       	or	r19, r5
 79e:	3d 72       	andi	r19, 0x2D	; 45
 7a0:	28 30       	cpi	r18, 0x08	; 8
 7a2:	2c 31       	cpi	r18, 0x1C	; 28
 7a4:	29 3b       	cpi	r18, 0xB9	; 185
 7a6:	38 3b       	cpi	r19, 0xB8	; 184
 7a8:	30 3b       	cpi	r19, 0xB0	; 176
 7aa:	00 5f       	subi	r16, 0xF0	; 240
 7ac:	53 61       	ori	r21, 0x13	; 19
 7ae:	74 20       	and	r7, r4
 7b0:	75 6e       	ori	r23, 0xE5	; 229
 7b2:	73 69       	ori	r23, 0x93	; 147
 7b4:	67 6e       	ori	r22, 0xE7	; 231
 7b6:	65 64       	ori	r22, 0x45	; 69
 7b8:	20 6c       	ori	r18, 0xC0	; 192
 7ba:	6f 6e       	ori	r22, 0xEF	; 239
 7bc:	67 20       	and	r6, r7
 7be:	6c 6f       	ori	r22, 0xFC	; 252
 7c0:	6e 67       	ori	r22, 0x7E	; 126
 7c2:	20 5f       	subi	r18, 0xF0	; 240
 7c4:	41 63       	ori	r20, 0x31	; 49
 7c6:	63 75       	andi	r22, 0x53	; 83
 7c8:	6d 3a       	cpi	r22, 0xAD	; 173
 7ca:	74 28       	or	r7, r4
 7cc:	30 2c       	mov	r3, r0
 7ce:	34 36       	cpi	r19, 0x64	; 100
 7d0:	29 3d       	cpi	r18, 0xD9	; 217
 7d2:	72 28       	or	r7, r2
 7d4:	30 2c       	mov	r3, r0
 7d6:	31 29       	or	r19, r1
 7d8:	3b 38       	cpi	r19, 0x8B	; 139
 7da:	3b 30       	cpi	r19, 0x0B	; 11
 7dc:	3b 00       	.word	0x003b	; ????
 7de:	76 6f       	ori	r23, 0xF6	; 246
 7e0:	69 64       	ori	r22, 0x49	; 73
 7e2:	3a 74       	andi	r19, 0x4A	; 74
 7e4:	28 30       	cpi	r18, 0x08	; 8
 7e6:	2c 34       	cpi	r18, 0x4C	; 76
 7e8:	37 29       	or	r19, r7
 7ea:	3d 28       	or	r3, r13
 7ec:	30 2c       	mov	r3, r0
 7ee:	34 37       	cpi	r19, 0x74	; 116
 7f0:	29 00       	.word	0x0029	; ????
 7f2:	61 76       	andi	r22, 0x61	; 97
 7f4:	72 5f       	subi	r23, 0xF2	; 242
 7f6:	65 6e       	ori	r22, 0xE5	; 229
 7f8:	64 3a       	cpi	r22, 0xA4	; 164
 7fa:	46 28       	or	r4, r6
 7fc:	30 2c       	mov	r3, r0
 7fe:	34 37       	cpi	r19, 0x74	; 116
 800:	29 00       	.word	0x0029	; ????
 802:	70 72       	andi	r23, 0x20	; 32
 804:	69 6e       	ori	r22, 0xE9	; 233
 806:	74 2e       	mov	r7, r20
 808:	63 00       	.word	0x0063	; ????
 80a:	2f 75       	andi	r18, 0x5F	; 95
 80c:	73 72       	andi	r23, 0x23	; 35
 80e:	2f 6c       	ori	r18, 0xCF	; 207
 810:	69 62       	ori	r22, 0x29	; 41
 812:	2f 61       	ori	r18, 0x1F	; 31
 814:	76 72       	andi	r23, 0x26	; 38
 816:	2f 69       	ori	r18, 0x9F	; 159
 818:	6e 63       	ori	r22, 0x3E	; 62
 81a:	6c 75       	andi	r22, 0x5C	; 92
 81c:	64 65       	ori	r22, 0x54	; 84
 81e:	2f 73       	andi	r18, 0x3F	; 63
 820:	74 64       	ori	r23, 0x44	; 68
 822:	69 6f       	ori	r22, 0xF9	; 249
 824:	2e 68       	ori	r18, 0x8E	; 142
 826:	00 2f       	mov	r16, r16
 828:	75 73       	andi	r23, 0x35	; 53
 82a:	72 2f       	mov	r23, r18
 82c:	6c 69       	ori	r22, 0x9C	; 156
 82e:	62 2f       	mov	r22, r18
 830:	61 76       	andi	r22, 0x61	; 97
 832:	72 2f       	mov	r23, r18
 834:	69 6e       	ori	r22, 0xE9	; 233
 836:	63 6c       	ori	r22, 0xC3	; 195
 838:	75 64       	ori	r23, 0x45	; 69
 83a:	65 2f       	mov	r22, r21
 83c:	69 6e       	ori	r22, 0xE9	; 233
 83e:	74 74       	andi	r23, 0x44	; 68
 840:	79 70       	andi	r23, 0x09	; 9
 842:	65 73       	andi	r22, 0x35	; 53
 844:	2e 68       	ori	r18, 0x8E	; 142
 846:	00 2f       	mov	r16, r16
 848:	75 73       	andi	r23, 0x35	; 53
 84a:	72 2f       	mov	r23, r18
 84c:	6c 69       	ori	r22, 0x9C	; 156
 84e:	62 2f       	mov	r22, r18
 850:	67 63       	ori	r22, 0x37	; 55
 852:	63 2f       	mov	r22, r19
 854:	61 76       	andi	r22, 0x61	; 97
 856:	72 2f       	mov	r23, r18
 858:	34 2e       	mov	r3, r20
 85a:	38 2e       	mov	r3, r24
 85c:	32 2f       	mov	r19, r18
 85e:	69 6e       	ori	r22, 0xE9	; 233
 860:	63 6c       	ori	r22, 0xC3	; 195
 862:	75 64       	ori	r23, 0x45	; 69
 864:	65 2f       	mov	r22, r21
 866:	73 74       	andi	r23, 0x43	; 67
 868:	64 69       	ori	r22, 0x94	; 148
 86a:	6e 74       	andi	r22, 0x4E	; 78
 86c:	2e 68       	ori	r18, 0x8E	; 142
 86e:	00 2f       	mov	r16, r16
 870:	75 73       	andi	r23, 0x35	; 53
 872:	72 2f       	mov	r23, r18
 874:	6c 69       	ori	r22, 0x9C	; 156
 876:	62 2f       	mov	r22, r18
 878:	61 76       	andi	r22, 0x61	; 97
 87a:	72 2f       	mov	r23, r18
 87c:	69 6e       	ori	r22, 0xE9	; 233
 87e:	63 6c       	ori	r22, 0xC3	; 195
 880:	75 64       	ori	r23, 0x45	; 69
 882:	65 2f       	mov	r22, r21
 884:	73 74       	andi	r23, 0x43	; 67
 886:	64 69       	ori	r22, 0x94	; 148
 888:	6e 74       	andi	r22, 0x4E	; 78
 88a:	2e 68       	ori	r18, 0x8E	; 142
 88c:	00 69       	ori	r16, 0x90	; 144
 88e:	6e 74       	andi	r22, 0x4E	; 78
 890:	38 5f       	subi	r19, 0xF8	; 248
 892:	74 3a       	cpi	r23, 0xA4	; 164
 894:	74 28       	or	r7, r4
 896:	34 2c       	mov	r3, r4
 898:	31 29       	or	r19, r1
 89a:	3d 28       	or	r3, r13
 89c:	30 2c       	mov	r3, r0
 89e:	31 30       	cpi	r19, 0x01	; 1
 8a0:	29 00       	.word	0x0029	; ????
 8a2:	75 69       	ori	r23, 0x95	; 149
 8a4:	6e 74       	andi	r22, 0x4E	; 78
 8a6:	38 5f       	subi	r19, 0xF8	; 248
 8a8:	74 3a       	cpi	r23, 0xA4	; 164
 8aa:	74 28       	or	r7, r4
 8ac:	34 2c       	mov	r3, r4
 8ae:	32 29       	or	r19, r2
 8b0:	3d 28       	or	r3, r13
 8b2:	30 2c       	mov	r3, r0
 8b4:	31 31       	cpi	r19, 0x11	; 17
 8b6:	29 00       	.word	0x0029	; ????
 8b8:	69 6e       	ori	r22, 0xE9	; 233
 8ba:	74 31       	cpi	r23, 0x14	; 20
 8bc:	36 5f       	subi	r19, 0xF6	; 246
 8be:	74 3a       	cpi	r23, 0xA4	; 164
 8c0:	74 28       	or	r7, r4
 8c2:	34 2c       	mov	r3, r4
 8c4:	33 29       	or	r19, r3
 8c6:	3d 28       	or	r3, r13
 8c8:	30 2c       	mov	r3, r0
 8ca:	31 29       	or	r19, r1
 8cc:	00 75       	andi	r16, 0x50	; 80
 8ce:	69 6e       	ori	r22, 0xE9	; 233
 8d0:	74 31       	cpi	r23, 0x14	; 20
 8d2:	36 5f       	subi	r19, 0xF6	; 246
 8d4:	74 3a       	cpi	r23, 0xA4	; 164
 8d6:	74 28       	or	r7, r4
 8d8:	34 2c       	mov	r3, r4
 8da:	34 29       	or	r19, r4
 8dc:	3d 28       	or	r3, r13
 8de:	30 2c       	mov	r3, r0
 8e0:	34 29       	or	r19, r4
 8e2:	00 69       	ori	r16, 0x90	; 144
 8e4:	6e 74       	andi	r22, 0x4E	; 78
 8e6:	33 32       	cpi	r19, 0x23	; 35
 8e8:	5f 74       	andi	r21, 0x4F	; 79
 8ea:	3a 74       	andi	r19, 0x4A	; 74
 8ec:	28 34       	cpi	r18, 0x48	; 72
 8ee:	2c 35       	cpi	r18, 0x5C	; 92
 8f0:	29 3d       	cpi	r18, 0xD9	; 217
 8f2:	28 30       	cpi	r18, 0x08	; 8
 8f4:	2c 33       	cpi	r18, 0x3C	; 60
 8f6:	29 00       	.word	0x0029	; ????
 8f8:	75 69       	ori	r23, 0x95	; 149
 8fa:	6e 74       	andi	r22, 0x4E	; 78
 8fc:	33 32       	cpi	r19, 0x23	; 35
 8fe:	5f 74       	andi	r21, 0x4F	; 79
 900:	3a 74       	andi	r19, 0x4A	; 74
 902:	28 34       	cpi	r18, 0x48	; 72
 904:	2c 36       	cpi	r18, 0x6C	; 108
 906:	29 3d       	cpi	r18, 0xD9	; 217
 908:	28 30       	cpi	r18, 0x08	; 8
 90a:	2c 35       	cpi	r18, 0x5C	; 92
 90c:	29 00       	.word	0x0029	; ????
 90e:	69 6e       	ori	r22, 0xE9	; 233
 910:	74 36       	cpi	r23, 0x64	; 100
 912:	34 5f       	subi	r19, 0xF4	; 244
 914:	74 3a       	cpi	r23, 0xA4	; 164
 916:	74 28       	or	r7, r4
 918:	34 2c       	mov	r3, r4
 91a:	37 29       	or	r19, r7
 91c:	3d 28       	or	r3, r13
 91e:	30 2c       	mov	r3, r0
 920:	36 29       	or	r19, r6
 922:	00 75       	andi	r16, 0x50	; 80
 924:	69 6e       	ori	r22, 0xE9	; 233
 926:	74 36       	cpi	r23, 0x64	; 100
 928:	34 5f       	subi	r19, 0xF4	; 244
 92a:	74 3a       	cpi	r23, 0xA4	; 164
 92c:	74 28       	or	r7, r4
 92e:	34 2c       	mov	r3, r4
 930:	38 29       	or	r19, r8
 932:	3d 28       	or	r3, r13
 934:	30 2c       	mov	r3, r0
 936:	37 29       	or	r19, r7
 938:	00 69       	ori	r16, 0x90	; 144
 93a:	6e 74       	andi	r22, 0x4E	; 78
 93c:	70 74       	andi	r23, 0x40	; 64
 93e:	72 5f       	subi	r23, 0xF2	; 242
 940:	74 3a       	cpi	r23, 0xA4	; 164
 942:	74 28       	or	r7, r4
 944:	34 2c       	mov	r3, r4
 946:	39 29       	or	r19, r9
 948:	3d 28       	or	r3, r13
 94a:	34 2c       	mov	r3, r4
 94c:	33 29       	or	r19, r3
 94e:	00 75       	andi	r16, 0x50	; 80
 950:	69 6e       	ori	r22, 0xE9	; 233
 952:	74 70       	andi	r23, 0x04	; 4
 954:	74 72       	andi	r23, 0x24	; 36
 956:	5f 74       	andi	r21, 0x4F	; 79
 958:	3a 74       	andi	r19, 0x4A	; 74
 95a:	28 34       	cpi	r18, 0x48	; 72
 95c:	2c 31       	cpi	r18, 0x1C	; 28
 95e:	30 29       	or	r19, r0
 960:	3d 28       	or	r3, r13
 962:	34 2c       	mov	r3, r4
 964:	34 29       	or	r19, r4
 966:	00 69       	ori	r16, 0x90	; 144
 968:	6e 74       	andi	r22, 0x4E	; 78
 96a:	5f 6c       	ori	r21, 0xCF	; 207
 96c:	65 61       	ori	r22, 0x15	; 21
 96e:	73 74       	andi	r23, 0x43	; 67
 970:	38 5f       	subi	r19, 0xF8	; 248
 972:	74 3a       	cpi	r23, 0xA4	; 164
 974:	74 28       	or	r7, r4
 976:	34 2c       	mov	r3, r4
 978:	31 31       	cpi	r19, 0x11	; 17
 97a:	29 3d       	cpi	r18, 0xD9	; 217
 97c:	28 34       	cpi	r18, 0x48	; 72
 97e:	2c 31       	cpi	r18, 0x1C	; 28
 980:	29 00       	.word	0x0029	; ????
 982:	75 69       	ori	r23, 0x95	; 149
 984:	6e 74       	andi	r22, 0x4E	; 78
 986:	5f 6c       	ori	r21, 0xCF	; 207
 988:	65 61       	ori	r22, 0x15	; 21
 98a:	73 74       	andi	r23, 0x43	; 67
 98c:	38 5f       	subi	r19, 0xF8	; 248
 98e:	74 3a       	cpi	r23, 0xA4	; 164
 990:	74 28       	or	r7, r4
 992:	34 2c       	mov	r3, r4
 994:	31 32       	cpi	r19, 0x21	; 33
 996:	29 3d       	cpi	r18, 0xD9	; 217
 998:	28 34       	cpi	r18, 0x48	; 72
 99a:	2c 32       	cpi	r18, 0x2C	; 44
 99c:	29 00       	.word	0x0029	; ????
 99e:	69 6e       	ori	r22, 0xE9	; 233
 9a0:	74 5f       	subi	r23, 0xF4	; 244
 9a2:	6c 65       	ori	r22, 0x5C	; 92
 9a4:	61 73       	andi	r22, 0x31	; 49
 9a6:	74 31       	cpi	r23, 0x14	; 20
 9a8:	36 5f       	subi	r19, 0xF6	; 246
 9aa:	74 3a       	cpi	r23, 0xA4	; 164
 9ac:	74 28       	or	r7, r4
 9ae:	34 2c       	mov	r3, r4
 9b0:	31 33       	cpi	r19, 0x31	; 49
 9b2:	29 3d       	cpi	r18, 0xD9	; 217
 9b4:	28 34       	cpi	r18, 0x48	; 72
 9b6:	2c 33       	cpi	r18, 0x3C	; 60
 9b8:	29 00       	.word	0x0029	; ????
 9ba:	75 69       	ori	r23, 0x95	; 149
 9bc:	6e 74       	andi	r22, 0x4E	; 78
 9be:	5f 6c       	ori	r21, 0xCF	; 207
 9c0:	65 61       	ori	r22, 0x15	; 21
 9c2:	73 74       	andi	r23, 0x43	; 67
 9c4:	31 36       	cpi	r19, 0x61	; 97
 9c6:	5f 74       	andi	r21, 0x4F	; 79
 9c8:	3a 74       	andi	r19, 0x4A	; 74
 9ca:	28 34       	cpi	r18, 0x48	; 72
 9cc:	2c 31       	cpi	r18, 0x1C	; 28
 9ce:	34 29       	or	r19, r4
 9d0:	3d 28       	or	r3, r13
 9d2:	34 2c       	mov	r3, r4
 9d4:	34 29       	or	r19, r4
 9d6:	00 69       	ori	r16, 0x90	; 144
 9d8:	6e 74       	andi	r22, 0x4E	; 78
 9da:	5f 6c       	ori	r21, 0xCF	; 207
 9dc:	65 61       	ori	r22, 0x15	; 21
 9de:	73 74       	andi	r23, 0x43	; 67
 9e0:	33 32       	cpi	r19, 0x23	; 35
 9e2:	5f 74       	andi	r21, 0x4F	; 79
 9e4:	3a 74       	andi	r19, 0x4A	; 74
 9e6:	28 34       	cpi	r18, 0x48	; 72
 9e8:	2c 31       	cpi	r18, 0x1C	; 28
 9ea:	35 29       	or	r19, r5
 9ec:	3d 28       	or	r3, r13
 9ee:	34 2c       	mov	r3, r4
 9f0:	35 29       	or	r19, r5
 9f2:	00 75       	andi	r16, 0x50	; 80
 9f4:	69 6e       	ori	r22, 0xE9	; 233
 9f6:	74 5f       	subi	r23, 0xF4	; 244
 9f8:	6c 65       	ori	r22, 0x5C	; 92
 9fa:	61 73       	andi	r22, 0x31	; 49
 9fc:	74 33       	cpi	r23, 0x34	; 52
 9fe:	32 5f       	subi	r19, 0xF2	; 242
 a00:	74 3a       	cpi	r23, 0xA4	; 164
 a02:	74 28       	or	r7, r4
 a04:	34 2c       	mov	r3, r4
 a06:	31 36       	cpi	r19, 0x61	; 97
 a08:	29 3d       	cpi	r18, 0xD9	; 217
 a0a:	28 34       	cpi	r18, 0x48	; 72
 a0c:	2c 36       	cpi	r18, 0x6C	; 108
 a0e:	29 00       	.word	0x0029	; ????
 a10:	69 6e       	ori	r22, 0xE9	; 233
 a12:	74 5f       	subi	r23, 0xF4	; 244
 a14:	6c 65       	ori	r22, 0x5C	; 92
 a16:	61 73       	andi	r22, 0x31	; 49
 a18:	74 36       	cpi	r23, 0x64	; 100
 a1a:	34 5f       	subi	r19, 0xF4	; 244
 a1c:	74 3a       	cpi	r23, 0xA4	; 164
 a1e:	74 28       	or	r7, r4
 a20:	34 2c       	mov	r3, r4
 a22:	31 37       	cpi	r19, 0x71	; 113
 a24:	29 3d       	cpi	r18, 0xD9	; 217
 a26:	28 34       	cpi	r18, 0x48	; 72
 a28:	2c 37       	cpi	r18, 0x7C	; 124
 a2a:	29 00       	.word	0x0029	; ????
 a2c:	75 69       	ori	r23, 0x95	; 149
 a2e:	6e 74       	andi	r22, 0x4E	; 78
 a30:	5f 6c       	ori	r21, 0xCF	; 207
 a32:	65 61       	ori	r22, 0x15	; 21
 a34:	73 74       	andi	r23, 0x43	; 67
 a36:	36 34       	cpi	r19, 0x46	; 70
 a38:	5f 74       	andi	r21, 0x4F	; 79
 a3a:	3a 74       	andi	r19, 0x4A	; 74
 a3c:	28 34       	cpi	r18, 0x48	; 72
 a3e:	2c 31       	cpi	r18, 0x1C	; 28
 a40:	38 29       	or	r19, r8
 a42:	3d 28       	or	r3, r13
 a44:	34 2c       	mov	r3, r4
 a46:	38 29       	or	r19, r8
 a48:	00 69       	ori	r16, 0x90	; 144
 a4a:	6e 74       	andi	r22, 0x4E	; 78
 a4c:	5f 66       	ori	r21, 0x6F	; 111
 a4e:	61 73       	andi	r22, 0x31	; 49
 a50:	74 38       	cpi	r23, 0x84	; 132
 a52:	5f 74       	andi	r21, 0x4F	; 79
 a54:	3a 74       	andi	r19, 0x4A	; 74
 a56:	28 34       	cpi	r18, 0x48	; 72
 a58:	2c 31       	cpi	r18, 0x1C	; 28
 a5a:	39 29       	or	r19, r9
 a5c:	3d 28       	or	r3, r13
 a5e:	34 2c       	mov	r3, r4
 a60:	31 29       	or	r19, r1
 a62:	00 75       	andi	r16, 0x50	; 80
 a64:	69 6e       	ori	r22, 0xE9	; 233
 a66:	74 5f       	subi	r23, 0xF4	; 244
 a68:	66 61       	ori	r22, 0x16	; 22
 a6a:	73 74       	andi	r23, 0x43	; 67
 a6c:	38 5f       	subi	r19, 0xF8	; 248
 a6e:	74 3a       	cpi	r23, 0xA4	; 164
 a70:	74 28       	or	r7, r4
 a72:	34 2c       	mov	r3, r4
 a74:	32 30       	cpi	r19, 0x02	; 2
 a76:	29 3d       	cpi	r18, 0xD9	; 217
 a78:	28 34       	cpi	r18, 0x48	; 72
 a7a:	2c 32       	cpi	r18, 0x2C	; 44
 a7c:	29 00       	.word	0x0029	; ????
 a7e:	69 6e       	ori	r22, 0xE9	; 233
 a80:	74 5f       	subi	r23, 0xF4	; 244
 a82:	66 61       	ori	r22, 0x16	; 22
 a84:	73 74       	andi	r23, 0x43	; 67
 a86:	31 36       	cpi	r19, 0x61	; 97
 a88:	5f 74       	andi	r21, 0x4F	; 79
 a8a:	3a 74       	andi	r19, 0x4A	; 74
 a8c:	28 34       	cpi	r18, 0x48	; 72
 a8e:	2c 32       	cpi	r18, 0x2C	; 44
 a90:	31 29       	or	r19, r1
 a92:	3d 28       	or	r3, r13
 a94:	34 2c       	mov	r3, r4
 a96:	33 29       	or	r19, r3
 a98:	00 75       	andi	r16, 0x50	; 80
 a9a:	69 6e       	ori	r22, 0xE9	; 233
 a9c:	74 5f       	subi	r23, 0xF4	; 244
 a9e:	66 61       	ori	r22, 0x16	; 22
 aa0:	73 74       	andi	r23, 0x43	; 67
 aa2:	31 36       	cpi	r19, 0x61	; 97
 aa4:	5f 74       	andi	r21, 0x4F	; 79
 aa6:	3a 74       	andi	r19, 0x4A	; 74
 aa8:	28 34       	cpi	r18, 0x48	; 72
 aaa:	2c 32       	cpi	r18, 0x2C	; 44
 aac:	32 29       	or	r19, r2
 aae:	3d 28       	or	r3, r13
 ab0:	34 2c       	mov	r3, r4
 ab2:	34 29       	or	r19, r4
 ab4:	00 69       	ori	r16, 0x90	; 144
 ab6:	6e 74       	andi	r22, 0x4E	; 78
 ab8:	5f 66       	ori	r21, 0x6F	; 111
 aba:	61 73       	andi	r22, 0x31	; 49
 abc:	74 33       	cpi	r23, 0x34	; 52
 abe:	32 5f       	subi	r19, 0xF2	; 242
 ac0:	74 3a       	cpi	r23, 0xA4	; 164
 ac2:	74 28       	or	r7, r4
 ac4:	34 2c       	mov	r3, r4
 ac6:	32 33       	cpi	r19, 0x32	; 50
 ac8:	29 3d       	cpi	r18, 0xD9	; 217
 aca:	28 34       	cpi	r18, 0x48	; 72
 acc:	2c 35       	cpi	r18, 0x5C	; 92
 ace:	29 00       	.word	0x0029	; ????
 ad0:	75 69       	ori	r23, 0x95	; 149
 ad2:	6e 74       	andi	r22, 0x4E	; 78
 ad4:	5f 66       	ori	r21, 0x6F	; 111
 ad6:	61 73       	andi	r22, 0x31	; 49
 ad8:	74 33       	cpi	r23, 0x34	; 52
 ada:	32 5f       	subi	r19, 0xF2	; 242
 adc:	74 3a       	cpi	r23, 0xA4	; 164
 ade:	74 28       	or	r7, r4
 ae0:	34 2c       	mov	r3, r4
 ae2:	32 34       	cpi	r19, 0x42	; 66
 ae4:	29 3d       	cpi	r18, 0xD9	; 217
 ae6:	28 34       	cpi	r18, 0x48	; 72
 ae8:	2c 36       	cpi	r18, 0x6C	; 108
 aea:	29 00       	.word	0x0029	; ????
 aec:	69 6e       	ori	r22, 0xE9	; 233
 aee:	74 5f       	subi	r23, 0xF4	; 244
 af0:	66 61       	ori	r22, 0x16	; 22
 af2:	73 74       	andi	r23, 0x43	; 67
 af4:	36 34       	cpi	r19, 0x46	; 70
 af6:	5f 74       	andi	r21, 0x4F	; 79
 af8:	3a 74       	andi	r19, 0x4A	; 74
 afa:	28 34       	cpi	r18, 0x48	; 72
 afc:	2c 32       	cpi	r18, 0x2C	; 44
 afe:	35 29       	or	r19, r5
 b00:	3d 28       	or	r3, r13
 b02:	34 2c       	mov	r3, r4
 b04:	37 29       	or	r19, r7
 b06:	00 75       	andi	r16, 0x50	; 80
 b08:	69 6e       	ori	r22, 0xE9	; 233
 b0a:	74 5f       	subi	r23, 0xF4	; 244
 b0c:	66 61       	ori	r22, 0x16	; 22
 b0e:	73 74       	andi	r23, 0x43	; 67
 b10:	36 34       	cpi	r19, 0x46	; 70
 b12:	5f 74       	andi	r21, 0x4F	; 79
 b14:	3a 74       	andi	r19, 0x4A	; 74
 b16:	28 34       	cpi	r18, 0x48	; 72
 b18:	2c 32       	cpi	r18, 0x2C	; 44
 b1a:	36 29       	or	r19, r6
 b1c:	3d 28       	or	r3, r13
 b1e:	34 2c       	mov	r3, r4
 b20:	38 29       	or	r19, r8
 b22:	00 69       	ori	r16, 0x90	; 144
 b24:	6e 74       	andi	r22, 0x4E	; 78
 b26:	6d 61       	ori	r22, 0x1D	; 29
 b28:	78 5f       	subi	r23, 0xF8	; 248
 b2a:	74 3a       	cpi	r23, 0xA4	; 164
 b2c:	74 28       	or	r7, r4
 b2e:	34 2c       	mov	r3, r4
 b30:	32 37       	cpi	r19, 0x72	; 114
 b32:	29 3d       	cpi	r18, 0xD9	; 217
 b34:	28 34       	cpi	r18, 0x48	; 72
 b36:	2c 37       	cpi	r18, 0x7C	; 124
 b38:	29 00       	.word	0x0029	; ????
 b3a:	75 69       	ori	r23, 0x95	; 149
 b3c:	6e 74       	andi	r22, 0x4E	; 78
 b3e:	6d 61       	ori	r22, 0x1D	; 29
 b40:	78 5f       	subi	r23, 0xF8	; 248
 b42:	74 3a       	cpi	r23, 0xA4	; 164
 b44:	74 28       	or	r7, r4
 b46:	34 2c       	mov	r3, r4
 b48:	32 38       	cpi	r19, 0x82	; 130
 b4a:	29 3d       	cpi	r18, 0xD9	; 217
 b4c:	28 34       	cpi	r18, 0x48	; 72
 b4e:	2c 38       	cpi	r18, 0x8C	; 140
 b50:	29 00       	.word	0x0029	; ????
 b52:	69 6e       	ori	r22, 0xE9	; 233
 b54:	74 5f       	subi	r23, 0xF4	; 244
 b56:	66 61       	ori	r22, 0x16	; 22
 b58:	72 70       	andi	r23, 0x02	; 2
 b5a:	74 72       	andi	r23, 0x24	; 36
 b5c:	5f 74       	andi	r21, 0x4F	; 79
 b5e:	3a 74       	andi	r19, 0x4A	; 74
 b60:	28 32       	cpi	r18, 0x28	; 40
 b62:	2c 31       	cpi	r18, 0x1C	; 28
 b64:	29 3d       	cpi	r18, 0xD9	; 217
 b66:	28 34       	cpi	r18, 0x48	; 72
 b68:	2c 35       	cpi	r18, 0x5C	; 92
 b6a:	29 00       	.word	0x0029	; ????
 b6c:	75 69       	ori	r23, 0x95	; 149
 b6e:	6e 74       	andi	r22, 0x4E	; 78
 b70:	5f 66       	ori	r21, 0x6F	; 111
 b72:	61 72       	andi	r22, 0x21	; 33
 b74:	70 74       	andi	r23, 0x40	; 64
 b76:	72 5f       	subi	r23, 0xF2	; 242
 b78:	74 3a       	cpi	r23, 0xA4	; 164
 b7a:	74 28       	or	r7, r4
 b7c:	32 2c       	mov	r3, r2
 b7e:	32 29       	or	r19, r2
 b80:	3d 28       	or	r3, r13
 b82:	34 2c       	mov	r3, r4
 b84:	36 29       	or	r19, r6
 b86:	00 2f       	mov	r16, r16
 b88:	75 73       	andi	r23, 0x35	; 53
 b8a:	72 2f       	mov	r23, r18
 b8c:	6c 69       	ori	r22, 0x9C	; 156
 b8e:	62 2f       	mov	r22, r18
 b90:	67 63       	ori	r22, 0x37	; 55
 b92:	63 2f       	mov	r22, r19
 b94:	61 76       	andi	r22, 0x61	; 97
 b96:	72 2f       	mov	r23, r18
 b98:	34 2e       	mov	r3, r20
 b9a:	38 2e       	mov	r3, r24
 b9c:	32 2f       	mov	r19, r18
 b9e:	69 6e       	ori	r22, 0xE9	; 233
 ba0:	63 6c       	ori	r22, 0xC3	; 195
 ba2:	75 64       	ori	r23, 0x45	; 69
 ba4:	65 2f       	mov	r22, r21
 ba6:	73 74       	andi	r23, 0x43	; 67
 ba8:	64 61       	ori	r22, 0x14	; 20
 baa:	72 67       	ori	r23, 0x72	; 114
 bac:	2e 68       	ori	r18, 0x8E	; 142
 bae:	00 5f       	subi	r16, 0xF0	; 240
 bb0:	5f 67       	ori	r21, 0x7F	; 127
 bb2:	6e 75       	andi	r22, 0x5E	; 94
 bb4:	63 5f       	subi	r22, 0xF3	; 243
 bb6:	76 61       	ori	r23, 0x16	; 22
 bb8:	5f 6c       	ori	r21, 0xCF	; 207
 bba:	69 73       	andi	r22, 0x39	; 57
 bbc:	74 3a       	cpi	r23, 0xA4	; 164
 bbe:	74 28       	or	r7, r4
 bc0:	35 2c       	mov	r3, r5
 bc2:	31 29       	or	r19, r1
 bc4:	3d 28       	or	r3, r13
 bc6:	35 2c       	mov	r3, r5
 bc8:	32 29       	or	r19, r2
 bca:	3d 2a       	or	r3, r29
 bcc:	28 30       	cpi	r18, 0x08	; 8
 bce:	2c 34       	cpi	r18, 0x4C	; 76
 bd0:	37 29       	or	r19, r7
 bd2:	00 76       	andi	r16, 0x60	; 96
 bd4:	61 5f       	subi	r22, 0xF1	; 241
 bd6:	6c 69       	ori	r22, 0x9C	; 156
 bd8:	73 74       	andi	r23, 0x43	; 67
 bda:	3a 74       	andi	r19, 0x4A	; 74
 bdc:	28 35       	cpi	r18, 0x58	; 88
 bde:	2c 33       	cpi	r18, 0x3C	; 60
 be0:	29 3d       	cpi	r18, 0xD9	; 217
 be2:	28 35       	cpi	r18, 0x58	; 88
 be4:	2c 31       	cpi	r18, 0x1C	; 28
 be6:	29 00       	.word	0x0029	; ????
 be8:	2f 75       	andi	r18, 0x5F	; 95
 bea:	73 72       	andi	r23, 0x23	; 35
 bec:	2f 6c       	ori	r18, 0xCF	; 207
 bee:	69 62       	ori	r22, 0x29	; 41
 bf0:	2f 67       	ori	r18, 0x7F	; 127
 bf2:	63 63       	ori	r22, 0x33	; 51
 bf4:	2f 61       	ori	r18, 0x1F	; 31
 bf6:	76 72       	andi	r23, 0x26	; 38
 bf8:	2f 34       	cpi	r18, 0x4F	; 79
 bfa:	2e 38       	cpi	r18, 0x8E	; 142
 bfc:	2e 32       	cpi	r18, 0x2E	; 46
 bfe:	2f 69       	ori	r18, 0x9F	; 159
 c00:	6e 63       	ori	r22, 0x3E	; 62
 c02:	6c 75       	andi	r22, 0x5C	; 92
 c04:	64 65       	ori	r22, 0x54	; 84
 c06:	2f 73       	andi	r18, 0x3F	; 63
 c08:	74 64       	ori	r23, 0x44	; 68
 c0a:	64 65       	ori	r22, 0x54	; 84
 c0c:	66 2e       	mov	r6, r22
 c0e:	68 00       	.word	0x0068	; ????
 c10:	73 69       	ori	r23, 0x93	; 147
 c12:	7a 65       	ori	r23, 0x5A	; 90
 c14:	5f 74       	andi	r21, 0x4F	; 79
 c16:	3a 74       	andi	r19, 0x4A	; 74
 c18:	28 36       	cpi	r18, 0x68	; 104
 c1a:	2c 31       	cpi	r18, 0x1C	; 28
 c1c:	29 3d       	cpi	r18, 0xD9	; 217
 c1e:	28 30       	cpi	r18, 0x08	; 8
 c20:	2c 34       	cpi	r18, 0x4C	; 76
 c22:	29 00       	.word	0x0029	; ????
 c24:	5f 5f       	subi	r21, 0xFF	; 255
 c26:	66 69       	ori	r22, 0x96	; 150
 c28:	6c 65       	ori	r22, 0x5C	; 92
 c2a:	3a 54       	subi	r19, 0x4A	; 74
 c2c:	28 31       	cpi	r18, 0x18	; 24
 c2e:	2c 31       	cpi	r18, 0x1C	; 28
 c30:	29 3d       	cpi	r18, 0xD9	; 217
 c32:	73 31       	cpi	r23, 0x13	; 19
 c34:	34 62       	ori	r19, 0x24	; 36
 c36:	75 66       	ori	r23, 0x65	; 101
 c38:	3a 28       	or	r3, r10
 c3a:	31 2c       	mov	r3, r1
 c3c:	32 29       	or	r19, r2
 c3e:	3d 2a       	or	r3, r29
 c40:	28 30       	cpi	r18, 0x08	; 8
 c42:	2c 32       	cpi	r18, 0x2C	; 44
 c44:	29 2c       	mov	r2, r9
 c46:	30 2c       	mov	r3, r0
 c48:	31 36       	cpi	r19, 0x61	; 97
 c4a:	3b 75       	andi	r19, 0x5B	; 91
 c4c:	6e 67       	ori	r22, 0x7E	; 126
 c4e:	65 74       	andi	r22, 0x45	; 69
 c50:	3a 28       	or	r3, r10
 c52:	30 2c       	mov	r3, r0
 c54:	31 31       	cpi	r19, 0x11	; 17
 c56:	29 2c       	mov	r2, r9
 c58:	31 36       	cpi	r19, 0x61	; 97
 c5a:	2c 38       	cpi	r18, 0x8C	; 140
 c5c:	3b 66       	ori	r19, 0x6B	; 107
 c5e:	6c 61       	ori	r22, 0x1C	; 28
 c60:	67 73       	andi	r22, 0x37	; 55
 c62:	3a 28       	or	r3, r10
 c64:	34 2c       	mov	r3, r4
 c66:	32 29       	or	r19, r2
 c68:	2c 32       	cpi	r18, 0x2C	; 44
 c6a:	34 2c       	mov	r3, r4
 c6c:	38 3b       	cpi	r19, 0xB8	; 184
 c6e:	73 69       	ori	r23, 0x93	; 147
 c70:	7a 65       	ori	r23, 0x5A	; 90
 c72:	3a 28       	or	r3, r10
 c74:	30 2c       	mov	r3, r0
 c76:	31 29       	or	r19, r1
 c78:	2c 33       	cpi	r18, 0x3C	; 60
 c7a:	32 2c       	mov	r3, r2
 c7c:	31 36       	cpi	r19, 0x61	; 97
 c7e:	3b 6c       	ori	r19, 0xCB	; 203
 c80:	65 6e       	ori	r22, 0xE5	; 229
 c82:	3a 28       	or	r3, r10
 c84:	30 2c       	mov	r3, r0
 c86:	31 29       	or	r19, r1
 c88:	2c 34       	cpi	r18, 0x4C	; 76
 c8a:	38 2c       	mov	r3, r8
 c8c:	31 36       	cpi	r19, 0x61	; 97
 c8e:	3b 70       	andi	r19, 0x0B	; 11
 c90:	75 74       	andi	r23, 0x45	; 69
 c92:	3a 28       	or	r3, r10
 c94:	31 2c       	mov	r3, r1
 c96:	33 29       	or	r19, r3
 c98:	3d 2a       	or	r3, r29
 c9a:	28 31       	cpi	r18, 0x18	; 24
 c9c:	2c 34       	cpi	r18, 0x4C	; 76
 c9e:	29 3d       	cpi	r18, 0xD9	; 217
 ca0:	66 28       	or	r6, r6
 ca2:	30 2c       	mov	r3, r0
 ca4:	31 29       	or	r19, r1
 ca6:	2c 36       	cpi	r18, 0x6C	; 108
 ca8:	34 2c       	mov	r3, r4
 caa:	31 36       	cpi	r19, 0x61	; 97
 cac:	3b 67       	ori	r19, 0x7B	; 123
 cae:	65 74       	andi	r22, 0x45	; 69
 cb0:	3a 28       	or	r3, r10
 cb2:	31 2c       	mov	r3, r1
 cb4:	35 29       	or	r19, r5
 cb6:	3d 2a       	or	r3, r29
 cb8:	28 31       	cpi	r18, 0x18	; 24
 cba:	2c 36       	cpi	r18, 0x6C	; 108
 cbc:	29 3d       	cpi	r18, 0xD9	; 217
 cbe:	66 28       	or	r6, r6
 cc0:	30 2c       	mov	r3, r0
 cc2:	31 29       	or	r19, r1
 cc4:	2c 38       	cpi	r18, 0x8C	; 140
 cc6:	30 2c       	mov	r3, r0
 cc8:	31 36       	cpi	r19, 0x61	; 97
 cca:	3b 75       	andi	r19, 0x5B	; 91
 ccc:	64 61       	ori	r22, 0x14	; 20
 cce:	74 61       	ori	r23, 0x14	; 20
 cd0:	3a 28       	or	r3, r10
 cd2:	31 2c       	mov	r3, r1
 cd4:	37 29       	or	r19, r7
 cd6:	3d 2a       	or	r3, r29
 cd8:	28 30       	cpi	r18, 0x08	; 8
 cda:	2c 34       	cpi	r18, 0x4C	; 76
 cdc:	37 29       	or	r19, r7
 cde:	2c 39       	cpi	r18, 0x9C	; 156
 ce0:	36 2c       	mov	r3, r6
 ce2:	31 36       	cpi	r19, 0x61	; 97
 ce4:	3b 3b       	cpi	r19, 0xBB	; 187
 ce6:	00 2f       	mov	r16, r16
 ce8:	75 73       	andi	r23, 0x35	; 53
 cea:	72 2f       	mov	r23, r18
 cec:	6c 69       	ori	r22, 0x9C	; 156
 cee:	62 2f       	mov	r22, r18
 cf0:	61 76       	andi	r22, 0x61	; 97
 cf2:	72 2f       	mov	r23, r18
 cf4:	69 6e       	ori	r22, 0xE9	; 233
 cf6:	63 6c       	ori	r22, 0xC3	; 195
 cf8:	75 64       	ori	r23, 0x45	; 69
 cfa:	65 2f       	mov	r22, r21
 cfc:	61 76       	andi	r22, 0x61	; 97
 cfe:	72 2f       	mov	r23, r18
 d00:	69 6f       	ori	r22, 0xF9	; 249
 d02:	2e 68       	ori	r18, 0x8E	; 142
 d04:	00 2f       	mov	r16, r16
 d06:	75 73       	andi	r23, 0x35	; 53
 d08:	72 2f       	mov	r23, r18
 d0a:	6c 69       	ori	r22, 0x9C	; 156
 d0c:	62 2f       	mov	r22, r18
 d0e:	61 76       	andi	r22, 0x61	; 97
 d10:	72 2f       	mov	r23, r18
 d12:	69 6e       	ori	r22, 0xE9	; 233
 d14:	63 6c       	ori	r22, 0xC3	; 195
 d16:	75 64       	ori	r23, 0x45	; 69
 d18:	65 2f       	mov	r22, r21
 d1a:	61 76       	andi	r22, 0x61	; 97
 d1c:	72 2f       	mov	r23, r18
 d1e:	66 75       	andi	r22, 0x56	; 86
 d20:	73 65       	ori	r23, 0x53	; 83
 d22:	2e 68       	ori	r18, 0x8E	; 142
 d24:	00 5f       	subi	r16, 0xF0	; 240
 d26:	5f 66       	ori	r21, 0x6F	; 111
 d28:	75 73       	andi	r23, 0x35	; 53
 d2a:	65 5f       	subi	r22, 0xF5	; 245
 d2c:	74 3a       	cpi	r23, 0xA4	; 164
 d2e:	74 28       	or	r7, r4
 d30:	38 2c       	mov	r3, r8
 d32:	31 29       	or	r19, r1
 d34:	3d 28       	or	r3, r13
 d36:	38 2c       	mov	r3, r8
 d38:	32 29       	or	r19, r2
 d3a:	3d 73       	andi	r19, 0x3D	; 61
 d3c:	33 6c       	ori	r19, 0xC3	; 195
 d3e:	6f 77       	andi	r22, 0x7F	; 127
 d40:	3a 28       	or	r3, r10
 d42:	30 2c       	mov	r3, r0
 d44:	31 31       	cpi	r19, 0x11	; 17
 d46:	29 2c       	mov	r2, r9
 d48:	30 2c       	mov	r3, r0
 d4a:	38 3b       	cpi	r19, 0xB8	; 184
 d4c:	68 69       	ori	r22, 0x98	; 152
 d4e:	67 68       	ori	r22, 0x87	; 135
 d50:	3a 28       	or	r3, r10
 d52:	30 2c       	mov	r3, r0
 d54:	31 31       	cpi	r19, 0x11	; 17
 d56:	29 2c       	mov	r2, r9
 d58:	38 2c       	mov	r3, r8
 d5a:	38 3b       	cpi	r19, 0xB8	; 184
 d5c:	65 78       	andi	r22, 0x85	; 133
 d5e:	74 65       	ori	r23, 0x54	; 84
 d60:	6e 64       	ori	r22, 0x4E	; 78
 d62:	65 64       	ori	r22, 0x45	; 69
 d64:	3a 28       	or	r3, r10
 d66:	30 2c       	mov	r3, r0
 d68:	31 31       	cpi	r19, 0x11	; 17
 d6a:	29 2c       	mov	r2, r9
 d6c:	31 36       	cpi	r19, 0x61	; 97
 d6e:	2c 38       	cpi	r18, 0x8C	; 140
 d70:	3b 3b       	cpi	r19, 0xBB	; 187
 d72:	00 73       	andi	r16, 0x30	; 48
 d74:	65 72       	andi	r22, 0x25	; 37
 d76:	69 61       	ori	r22, 0x19	; 25
 d78:	6c 5f       	subi	r22, 0xFC	; 252
 d7a:	69 6e       	ori	r22, 0xE9	; 233
 d7c:	69 74       	andi	r22, 0x49	; 73
 d7e:	3a 46       	sbci	r19, 0x6A	; 106
 d80:	28 30       	cpi	r18, 0x08	; 8
 d82:	2c 34       	cpi	r18, 0x4C	; 76
 d84:	37 29       	or	r19, r7
 d86:	00 77       	andi	r16, 0x70	; 112
 d88:	72 69       	ori	r23, 0x92	; 146
 d8a:	74 65       	ori	r23, 0x54	; 84
 d8c:	5f 62       	ori	r21, 0x2F	; 47
 d8e:	79 74       	andi	r23, 0x49	; 73
 d90:	65 3a       	cpi	r22, 0xA5	; 165
 d92:	46 28       	or	r4, r6
 d94:	30 2c       	mov	r3, r0
 d96:	34 37       	cpi	r19, 0x74	; 116
 d98:	29 00       	.word	0x0029	; ????
 d9a:	63 3a       	cpi	r22, 0xA3	; 163
 d9c:	50 28       	or	r5, r0
 d9e:	30 2c       	mov	r3, r0
 da0:	31 31       	cpi	r19, 0x11	; 17
 da2:	29 00       	.word	0x0029	; ????
 da4:	73 65       	ori	r23, 0x53	; 83
 da6:	72 69       	ori	r23, 0x92	; 146
 da8:	61 6c       	ori	r22, 0xC1	; 193
 daa:	5f 69       	ori	r21, 0x9F	; 159
 dac:	6e 69       	ori	r22, 0x9E	; 158
 dae:	74 69       	ori	r23, 0x94	; 148
 db0:	61 6c       	ori	r22, 0xC1	; 193
 db2:	69 7a       	andi	r22, 0xA9	; 169
 db4:	65 64       	ori	r22, 0x45	; 69
 db6:	3a 53       	subi	r19, 0x3A	; 58
 db8:	28 30       	cpi	r18, 0x08	; 8
 dba:	2c 32       	cpi	r18, 0x2C	; 44
 dbc:	29 00       	.word	0x0029	; ????
 dbe:	74 65       	ori	r23, 0x54	; 84
 dc0:	73 74       	andi	r23, 0x43	; 67
 dc2:	5f 77       	andi	r21, 0x7F	; 127
 dc4:	72 69       	ori	r23, 0x92	; 146
 dc6:	74 65       	ori	r23, 0x54	; 84
 dc8:	2e 63       	ori	r18, 0x3E	; 62
 dca:	00 6d       	ori	r16, 0xD0	; 208
 dcc:	61 69       	ori	r22, 0x91	; 145
 dce:	6e 3a       	cpi	r22, 0xAE	; 174
 dd0:	46 28       	or	r4, r6
 dd2:	30 2c       	mov	r3, r0
 dd4:	31 29       	or	r19, r1
 dd6:	00 00       	Address 0x00000dd6 is out of bounds.
.word	0xffff	; ????

Disassembly of section .comment:

00000000 <.comment>:
   0:	47 43       	sbci	r20, 0x37	; 55
   2:	43 3a       	cpi	r20, 0xA3	; 163
   4:	20 28       	or	r2, r0
   6:	47 4e       	sbci	r20, 0xE7	; 231
   8:	55 29       	or	r21, r5
   a:	20 34       	cpi	r18, 0x40	; 64
   c:	2e 38       	cpi	r18, 0x8E	; 142
   e:	2e 32       	cpi	r18, 0x2E	; 46
  10:	00 00       	Address 0x00000010 is out of bounds.
.word	0xffff	; ????
