
test_read_atmega2560:     file format elf32-avr


Disassembly of section .text:

00000000 <__vectors>:
   0:	0c 94 72 00 	jmp	0xe4	; 0xe4 <__ctors_end>
   4:	0c 94 86 00 	jmp	0x10c	; 0x10c <__bad_interrupt>
   8:	0c 94 86 00 	jmp	0x10c	; 0x10c <__bad_interrupt>
   c:	0c 94 86 00 	jmp	0x10c	; 0x10c <__bad_interrupt>
  10:	0c 94 86 00 	jmp	0x10c	; 0x10c <__bad_interrupt>
  14:	0c 94 86 00 	jmp	0x10c	; 0x10c <__bad_interrupt>
  18:	0c 94 86 00 	jmp	0x10c	; 0x10c <__bad_interrupt>
  1c:	0c 94 86 00 	jmp	0x10c	; 0x10c <__bad_interrupt>
  20:	0c 94 86 00 	jmp	0x10c	; 0x10c <__bad_interrupt>
  24:	0c 94 86 00 	jmp	0x10c	; 0x10c <__bad_interrupt>
  28:	0c 94 86 00 	jmp	0x10c	; 0x10c <__bad_interrupt>
  2c:	0c 94 86 00 	jmp	0x10c	; 0x10c <__bad_interrupt>
  30:	0c 94 86 00 	jmp	0x10c	; 0x10c <__bad_interrupt>
  34:	0c 94 86 00 	jmp	0x10c	; 0x10c <__bad_interrupt>
  38:	0c 94 86 00 	jmp	0x10c	; 0x10c <__bad_interrupt>
  3c:	0c 94 86 00 	jmp	0x10c	; 0x10c <__bad_interrupt>
  40:	0c 94 86 00 	jmp	0x10c	; 0x10c <__bad_interrupt>
  44:	0c 94 86 00 	jmp	0x10c	; 0x10c <__bad_interrupt>
  48:	0c 94 86 00 	jmp	0x10c	; 0x10c <__bad_interrupt>
  4c:	0c 94 86 00 	jmp	0x10c	; 0x10c <__bad_interrupt>
  50:	0c 94 86 00 	jmp	0x10c	; 0x10c <__bad_interrupt>
  54:	0c 94 86 00 	jmp	0x10c	; 0x10c <__bad_interrupt>
  58:	0c 94 86 00 	jmp	0x10c	; 0x10c <__bad_interrupt>
  5c:	0c 94 86 00 	jmp	0x10c	; 0x10c <__bad_interrupt>
  60:	0c 94 86 00 	jmp	0x10c	; 0x10c <__bad_interrupt>
  64:	0c 94 86 00 	jmp	0x10c	; 0x10c <__bad_interrupt>
  68:	0c 94 86 00 	jmp	0x10c	; 0x10c <__bad_interrupt>
  6c:	0c 94 86 00 	jmp	0x10c	; 0x10c <__bad_interrupt>
  70:	0c 94 86 00 	jmp	0x10c	; 0x10c <__bad_interrupt>
  74:	0c 94 86 00 	jmp	0x10c	; 0x10c <__bad_interrupt>
  78:	0c 94 86 00 	jmp	0x10c	; 0x10c <__bad_interrupt>
  7c:	0c 94 86 00 	jmp	0x10c	; 0x10c <__bad_interrupt>
  80:	0c 94 86 00 	jmp	0x10c	; 0x10c <__bad_interrupt>
  84:	0c 94 86 00 	jmp	0x10c	; 0x10c <__bad_interrupt>
  88:	0c 94 86 00 	jmp	0x10c	; 0x10c <__bad_interrupt>
  8c:	0c 94 86 00 	jmp	0x10c	; 0x10c <__bad_interrupt>
  90:	0c 94 86 00 	jmp	0x10c	; 0x10c <__bad_interrupt>
  94:	0c 94 86 00 	jmp	0x10c	; 0x10c <__bad_interrupt>
  98:	0c 94 86 00 	jmp	0x10c	; 0x10c <__bad_interrupt>
  9c:	0c 94 86 00 	jmp	0x10c	; 0x10c <__bad_interrupt>
  a0:	0c 94 86 00 	jmp	0x10c	; 0x10c <__bad_interrupt>
  a4:	0c 94 86 00 	jmp	0x10c	; 0x10c <__bad_interrupt>
  a8:	0c 94 86 00 	jmp	0x10c	; 0x10c <__bad_interrupt>
  ac:	0c 94 86 00 	jmp	0x10c	; 0x10c <__bad_interrupt>
  b0:	0c 94 86 00 	jmp	0x10c	; 0x10c <__bad_interrupt>
  b4:	0c 94 86 00 	jmp	0x10c	; 0x10c <__bad_interrupt>
  b8:	0c 94 86 00 	jmp	0x10c	; 0x10c <__bad_interrupt>
  bc:	0c 94 86 00 	jmp	0x10c	; 0x10c <__bad_interrupt>
  c0:	0c 94 86 00 	jmp	0x10c	; 0x10c <__bad_interrupt>
  c4:	0c 94 86 00 	jmp	0x10c	; 0x10c <__bad_interrupt>
  c8:	0c 94 86 00 	jmp	0x10c	; 0x10c <__bad_interrupt>
  cc:	0c 94 86 00 	jmp	0x10c	; 0x10c <__bad_interrupt>
  d0:	0c 94 86 00 	jmp	0x10c	; 0x10c <__bad_interrupt>
  d4:	0c 94 86 00 	jmp	0x10c	; 0x10c <__bad_interrupt>
  d8:	0c 94 86 00 	jmp	0x10c	; 0x10c <__bad_interrupt>
  dc:	0c 94 86 00 	jmp	0x10c	; 0x10c <__bad_interrupt>
  e0:	0c 94 86 00 	jmp	0x10c	; 0x10c <__bad_interrupt>

000000e4 <__ctors_end>:
  e4:	11 24       	eor	r1, r1
  e6:	1f be       	out	0x3f, r1	; 63
  e8:	cf ef       	ldi	r28, 0xFF	; 255
  ea:	d1 e2       	ldi	r29, 0x21	; 33
  ec:	de bf       	out	0x3e, r29	; 62
  ee:	cd bf       	out	0x3d, r28	; 61
  f0:	00 e0       	ldi	r16, 0x00	; 0
  f2:	0c bf       	out	0x3c, r16	; 60

000000f4 <__do_clear_bss>:
  f4:	12 e0       	ldi	r17, 0x02	; 2
  f6:	a0 e0       	ldi	r26, 0x00	; 0
  f8:	b2 e0       	ldi	r27, 0x02	; 2
  fa:	01 c0       	rjmp	.+2      	; 0xfe <.do_clear_bss_start>

000000fc <.do_clear_bss_loop>:
  fc:	1d 92       	st	X+, r1

000000fe <.do_clear_bss_start>:
  fe:	a2 30       	cpi	r26, 0x02	; 2
 100:	b1 07       	cpc	r27, r17
 102:	e1 f7       	brne	.-8      	; 0xfc <.do_clear_bss_loop>
 104:	0e 94 bc 00 	call	0x178	; 0x178 <main>
 108:	0c 94 dd 00 	jmp	0x1ba	; 0x1ba <_exit>

0000010c <__bad_interrupt>:
 10c:	0c 94 00 00 	jmp	0	; 0x0 <__vectors>

00000110 <avr_end>:
 110:	84 e0       	ldi	r24, 0x04	; 4
 112:	0e 94 95 00 	call	0x12a	; 0x12a <write_byte>
 116:	ff cf       	rjmp	.-2      	; 0x116 <avr_end+0x6>

00000118 <serial_init>:
 118:	10 92 c5 00 	sts	0x00C5, r1
 11c:	89 e1       	ldi	r24, 0x19	; 25
 11e:	80 93 c4 00 	sts	0x00C4, r24
 122:	88 e1       	ldi	r24, 0x18	; 24
 124:	80 93 c1 00 	sts	0x00C1, r24
 128:	08 95       	ret

0000012a <write_byte>:
 12a:	90 91 00 02 	lds	r25, 0x0200
 12e:	91 11       	cpse	r25, r1
 130:	0b c0       	rjmp	.+22     	; 0x148 <write_byte+0x1e>
 132:	10 92 c5 00 	sts	0x00C5, r1
 136:	99 e1       	ldi	r25, 0x19	; 25
 138:	90 93 c4 00 	sts	0x00C4, r25
 13c:	98 e1       	ldi	r25, 0x18	; 24
 13e:	90 93 c1 00 	sts	0x00C1, r25
 142:	91 e0       	ldi	r25, 0x01	; 1
 144:	90 93 00 02 	sts	0x0200, r25
 148:	90 91 c0 00 	lds	r25, 0x00C0
 14c:	95 ff       	sbrs	r25, 5
 14e:	fc cf       	rjmp	.-8      	; 0x148 <write_byte+0x1e>
 150:	80 93 c6 00 	sts	0x00C6, r24
 154:	08 95       	ret

00000156 <read_byte>:
 156:	80 91 01 02 	lds	r24, 0x0201
 15a:	88 23       	and	r24, r24
 15c:	39 f0       	breq	.+14     	; 0x16c <read_byte+0x16>
 15e:	80 91 c0 00 	lds	r24, 0x00C0
 162:	87 ff       	sbrs	r24, 7
 164:	fc cf       	rjmp	.-8      	; 0x15e <read_byte+0x8>
 166:	80 91 c6 00 	lds	r24, 0x00C6
 16a:	08 95       	ret
 16c:	0e 94 8c 00 	call	0x118	; 0x118 <serial_init>
 170:	81 e0       	ldi	r24, 0x01	; 1
 172:	80 93 01 02 	sts	0x0201, r24
 176:	f3 cf       	rjmp	.-26     	; 0x15e <read_byte+0x8>

00000178 <main>:
 178:	cf 93       	push	r28
 17a:	83 e5       	ldi	r24, 0x53	; 83
 17c:	0e 94 95 00 	call	0x12a	; 0x12a <write_byte>
 180:	84 e7       	ldi	r24, 0x74	; 116
 182:	0e 94 95 00 	call	0x12a	; 0x12a <write_byte>
 186:	81 e6       	ldi	r24, 0x61	; 97
 188:	0e 94 95 00 	call	0x12a	; 0x12a <write_byte>
 18c:	82 e7       	ldi	r24, 0x72	; 114
 18e:	0e 94 95 00 	call	0x12a	; 0x12a <write_byte>
 192:	84 e7       	ldi	r24, 0x74	; 116
 194:	0e 94 95 00 	call	0x12a	; 0x12a <write_byte>
 198:	8a e3       	ldi	r24, 0x3A	; 58
 19a:	0e 94 95 00 	call	0x12a	; 0x12a <write_byte>
 19e:	80 e2       	ldi	r24, 0x20	; 32
 1a0:	0e 94 95 00 	call	0x12a	; 0x12a <write_byte>
 1a4:	0e 94 ab 00 	call	0x156	; 0x156 <read_byte>
 1a8:	c8 2f       	mov	r28, r24
 1aa:	0e 94 95 00 	call	0x12a	; 0x12a <write_byte>
 1ae:	c1 37       	cpi	r28, 0x71	; 113
 1b0:	c9 f7       	brne	.-14     	; 0x1a4 <main+0x2c>
 1b2:	80 e0       	ldi	r24, 0x00	; 0
 1b4:	90 e0       	ldi	r25, 0x00	; 0
 1b6:	cf 91       	pop	r28
 1b8:	08 95       	ret

000001ba <_exit>:
 1ba:	f8 94       	cli

000001bc <__stop_program>:
 1bc:	ff cf       	rjmp	.-2      	; 0x1bc <__stop_program>

Disassembly of section .bss:

00800200 <__bss_start>:
	...

00800201 <serial_initialized>:
	...

Disassembly of section .stab:

00000000 <_end-0x800202>:
   0:	01 00       	.word	0x0001	; ????
   2:	00 00       	nop
   4:	00 00       	nop
   6:	51 01       	movw	r10, r2
   8:	68 09       	sbc	r22, r8
   a:	00 00       	nop
   c:	01 00       	.word	0x0001	; ????
   e:	00 00       	nop
  10:	64 00       	.word	0x0064	; ????
  12:	00 00       	nop
  14:	0c 01       	movw	r0, r24
  16:	00 00       	nop
  18:	11 00       	.word	0x0011	; ????
  1a:	00 00       	nop
  1c:	80 00       	.word	0x0080	; ????
  1e:	00 00       	nop
  20:	00 00       	nop
  22:	00 00       	nop
  24:	1b 00       	.word	0x001b	; ????
  26:	00 00       	nop
  28:	24 00       	.word	0x0024	; ????
  2a:	33 00       	.word	0x0033	; ????
  2c:	00 00       	nop
  2e:	00 00       	nop
  30:	28 00       	.word	0x0028	; ????
  32:	00 00       	nop
  34:	84 00       	.word	0x0084	; ????
	...
  3e:	00 00       	nop
  40:	44 00       	.word	0x0044	; ????
  42:	34 00       	.word	0x0034	; ????
	...
  4c:	44 00       	.word	0x0044	; ????
  4e:	35 00       	.word	0x0035	; ????
  50:	04 00       	.word	0x0004	; ????
  52:	00 00       	nop
  54:	00 00       	nop
  56:	00 00       	nop
  58:	44 00       	.word	0x0044	; ????
  5a:	36 00       	.word	0x0036	; ????
  5c:	08 00       	.word	0x0008	; ????
  5e:	00 00       	nop
  60:	00 00       	nop
  62:	00 00       	nop
  64:	44 00       	.word	0x0044	; ????
  66:	37 00       	.word	0x0037	; ????
  68:	0c 00       	.word	0x000c	; ????
  6a:	00 00       	nop
  6c:	00 00       	nop
  6e:	00 00       	nop
  70:	44 00       	.word	0x0044	; ????
  72:	38 00       	.word	0x0038	; ????
  74:	10 00       	.word	0x0010	; ????
  76:	00 00       	nop
  78:	00 00       	nop
  7a:	00 00       	nop
  7c:	44 00       	.word	0x0044	; ????
  7e:	39 00       	.word	0x0039	; ????
  80:	14 00       	.word	0x0014	; ????
  82:	00 00       	nop
  84:	00 00       	nop
  86:	00 00       	nop
  88:	44 00       	.word	0x0044	; ????
  8a:	3a 00       	.word	0x003a	; ????
  8c:	18 00       	.word	0x0018	; ????
  8e:	00 00       	nop
  90:	00 00       	nop
  92:	00 00       	nop
  94:	44 00       	.word	0x0044	; ????
  96:	3b 00       	.word	0x003b	; ????
  98:	1c 00       	.word	0x001c	; ????
  9a:	00 00       	nop
  9c:	00 00       	nop
  9e:	00 00       	nop
  a0:	44 00       	.word	0x0044	; ????
  a2:	3c 00       	.word	0x003c	; ????
  a4:	20 00       	.word	0x0020	; ????
  a6:	00 00       	nop
  a8:	00 00       	nop
  aa:	00 00       	nop
  ac:	44 00       	.word	0x0044	; ????
  ae:	3d 00       	.word	0x003d	; ????
  b0:	24 00       	.word	0x0024	; ????
  b2:	00 00       	nop
  b4:	00 00       	nop
  b6:	00 00       	nop
  b8:	44 00       	.word	0x0044	; ????
  ba:	3e 00       	.word	0x003e	; ????
  bc:	28 00       	.word	0x0028	; ????
  be:	00 00       	nop
  c0:	00 00       	nop
  c2:	00 00       	nop
  c4:	44 00       	.word	0x0044	; ????
  c6:	3f 00       	.word	0x003f	; ????
  c8:	2c 00       	.word	0x002c	; ????
  ca:	00 00       	nop
  cc:	00 00       	nop
  ce:	00 00       	nop
  d0:	44 00       	.word	0x0044	; ????
  d2:	40 00       	.word	0x0040	; ????
  d4:	30 00       	.word	0x0030	; ????
  d6:	00 00       	nop
  d8:	00 00       	nop
  da:	00 00       	nop
  dc:	44 00       	.word	0x0044	; ????
  de:	41 00       	.word	0x0041	; ????
  e0:	34 00       	.word	0x0034	; ????
  e2:	00 00       	nop
  e4:	00 00       	nop
  e6:	00 00       	nop
  e8:	44 00       	.word	0x0044	; ????
  ea:	42 00       	.word	0x0042	; ????
  ec:	38 00       	.word	0x0038	; ????
  ee:	00 00       	nop
  f0:	00 00       	nop
  f2:	00 00       	nop
  f4:	44 00       	.word	0x0044	; ????
  f6:	43 00       	.word	0x0043	; ????
  f8:	3c 00       	.word	0x003c	; ????
  fa:	00 00       	nop
  fc:	00 00       	nop
  fe:	00 00       	nop
 100:	44 00       	.word	0x0044	; ????
 102:	44 00       	.word	0x0044	; ????
 104:	40 00       	.word	0x0040	; ????
 106:	00 00       	nop
 108:	00 00       	nop
 10a:	00 00       	nop
 10c:	44 00       	.word	0x0044	; ????
 10e:	45 00       	.word	0x0045	; ????
 110:	44 00       	.word	0x0044	; ????
 112:	00 00       	nop
 114:	00 00       	nop
 116:	00 00       	nop
 118:	44 00       	.word	0x0044	; ????
 11a:	46 00       	.word	0x0046	; ????
 11c:	48 00       	.word	0x0048	; ????
 11e:	00 00       	nop
 120:	00 00       	nop
 122:	00 00       	nop
 124:	44 00       	.word	0x0044	; ????
 126:	47 00       	.word	0x0047	; ????
 128:	4c 00       	.word	0x004c	; ????
 12a:	00 00       	nop
 12c:	00 00       	nop
 12e:	00 00       	nop
 130:	44 00       	.word	0x0044	; ????
 132:	48 00       	.word	0x0048	; ????
 134:	50 00       	.word	0x0050	; ????
 136:	00 00       	nop
 138:	00 00       	nop
 13a:	00 00       	nop
 13c:	44 00       	.word	0x0044	; ????
 13e:	49 00       	.word	0x0049	; ????
 140:	54 00       	.word	0x0054	; ????
 142:	00 00       	nop
 144:	00 00       	nop
 146:	00 00       	nop
 148:	44 00       	.word	0x0044	; ????
 14a:	4a 00       	.word	0x004a	; ????
 14c:	58 00       	.word	0x0058	; ????
 14e:	00 00       	nop
 150:	00 00       	nop
 152:	00 00       	nop
 154:	44 00       	.word	0x0044	; ????
 156:	4b 00       	.word	0x004b	; ????
 158:	5c 00       	.word	0x005c	; ????
 15a:	00 00       	nop
 15c:	00 00       	nop
 15e:	00 00       	nop
 160:	44 00       	.word	0x0044	; ????
 162:	4c 00       	.word	0x004c	; ????
 164:	60 00       	.word	0x0060	; ????
 166:	00 00       	nop
 168:	00 00       	nop
 16a:	00 00       	nop
 16c:	44 00       	.word	0x0044	; ????
 16e:	4d 00       	.word	0x004d	; ????
 170:	64 00       	.word	0x0064	; ????
 172:	00 00       	nop
 174:	00 00       	nop
 176:	00 00       	nop
 178:	44 00       	.word	0x0044	; ????
 17a:	4e 00       	.word	0x004e	; ????
 17c:	68 00       	.word	0x0068	; ????
 17e:	00 00       	nop
 180:	00 00       	nop
 182:	00 00       	nop
 184:	44 00       	.word	0x0044	; ????
 186:	4f 00       	.word	0x004f	; ????
 188:	6c 00       	.word	0x006c	; ????
 18a:	00 00       	nop
 18c:	00 00       	nop
 18e:	00 00       	nop
 190:	44 00       	.word	0x0044	; ????
 192:	50 00       	.word	0x0050	; ????
 194:	70 00       	.word	0x0070	; ????
 196:	00 00       	nop
 198:	00 00       	nop
 19a:	00 00       	nop
 19c:	44 00       	.word	0x0044	; ????
 19e:	51 00       	.word	0x0051	; ????
 1a0:	74 00       	.word	0x0074	; ????
 1a2:	00 00       	nop
 1a4:	00 00       	nop
 1a6:	00 00       	nop
 1a8:	44 00       	.word	0x0044	; ????
 1aa:	52 00       	.word	0x0052	; ????
 1ac:	78 00       	.word	0x0078	; ????
 1ae:	00 00       	nop
 1b0:	00 00       	nop
 1b2:	00 00       	nop
 1b4:	44 00       	.word	0x0044	; ????
 1b6:	53 00       	.word	0x0053	; ????
 1b8:	7c 00       	.word	0x007c	; ????
 1ba:	00 00       	nop
 1bc:	00 00       	nop
 1be:	00 00       	nop
 1c0:	44 00       	.word	0x0044	; ????
 1c2:	54 00       	.word	0x0054	; ????
 1c4:	80 00       	.word	0x0080	; ????
 1c6:	00 00       	nop
 1c8:	00 00       	nop
 1ca:	00 00       	nop
 1cc:	44 00       	.word	0x0044	; ????
 1ce:	55 00       	.word	0x0055	; ????
 1d0:	84 00       	.word	0x0084	; ????
 1d2:	00 00       	nop
 1d4:	00 00       	nop
 1d6:	00 00       	nop
 1d8:	44 00       	.word	0x0044	; ????
 1da:	56 00       	.word	0x0056	; ????
 1dc:	88 00       	.word	0x0088	; ????
 1de:	00 00       	nop
 1e0:	00 00       	nop
 1e2:	00 00       	nop
 1e4:	44 00       	.word	0x0044	; ????
 1e6:	57 00       	.word	0x0057	; ????
 1e8:	8c 00       	.word	0x008c	; ????
 1ea:	00 00       	nop
 1ec:	00 00       	nop
 1ee:	00 00       	nop
 1f0:	44 00       	.word	0x0044	; ????
 1f2:	58 00       	.word	0x0058	; ????
 1f4:	90 00       	.word	0x0090	; ????
 1f6:	00 00       	nop
 1f8:	00 00       	nop
 1fa:	00 00       	nop
 1fc:	44 00       	.word	0x0044	; ????
 1fe:	59 00       	.word	0x0059	; ????
 200:	94 00       	.word	0x0094	; ????
 202:	00 00       	nop
 204:	00 00       	nop
 206:	00 00       	nop
 208:	44 00       	.word	0x0044	; ????
 20a:	5a 00       	.word	0x005a	; ????
 20c:	98 00       	.word	0x0098	; ????
 20e:	00 00       	nop
 210:	00 00       	nop
 212:	00 00       	nop
 214:	44 00       	.word	0x0044	; ????
 216:	5b 00       	.word	0x005b	; ????
 218:	9c 00       	.word	0x009c	; ????
 21a:	00 00       	nop
 21c:	00 00       	nop
 21e:	00 00       	nop
 220:	44 00       	.word	0x0044	; ????
 222:	5c 00       	.word	0x005c	; ????
 224:	a0 00       	.word	0x00a0	; ????
 226:	00 00       	nop
 228:	00 00       	nop
 22a:	00 00       	nop
 22c:	44 00       	.word	0x0044	; ????
 22e:	5d 00       	.word	0x005d	; ????
 230:	a4 00       	.word	0x00a4	; ????
 232:	00 00       	nop
 234:	00 00       	nop
 236:	00 00       	nop
 238:	44 00       	.word	0x0044	; ????
 23a:	5e 00       	.word	0x005e	; ????
 23c:	a8 00       	.word	0x00a8	; ????
 23e:	00 00       	nop
 240:	00 00       	nop
 242:	00 00       	nop
 244:	44 00       	.word	0x0044	; ????
 246:	5f 00       	.word	0x005f	; ????
 248:	ac 00       	.word	0x00ac	; ????
 24a:	00 00       	nop
 24c:	00 00       	nop
 24e:	00 00       	nop
 250:	44 00       	.word	0x0044	; ????
 252:	60 00       	.word	0x0060	; ????
 254:	b0 00       	.word	0x00b0	; ????
 256:	00 00       	nop
 258:	00 00       	nop
 25a:	00 00       	nop
 25c:	44 00       	.word	0x0044	; ????
 25e:	61 00       	.word	0x0061	; ????
 260:	b4 00       	.word	0x00b4	; ????
 262:	00 00       	nop
 264:	00 00       	nop
 266:	00 00       	nop
 268:	44 00       	.word	0x0044	; ????
 26a:	62 00       	.word	0x0062	; ????
 26c:	b8 00       	.word	0x00b8	; ????
 26e:	00 00       	nop
 270:	00 00       	nop
 272:	00 00       	nop
 274:	44 00       	.word	0x0044	; ????
 276:	63 00       	.word	0x0063	; ????
 278:	bc 00       	.word	0x00bc	; ????
 27a:	00 00       	nop
 27c:	00 00       	nop
 27e:	00 00       	nop
 280:	44 00       	.word	0x0044	; ????
 282:	64 00       	.word	0x0064	; ????
 284:	c0 00       	.word	0x00c0	; ????
 286:	00 00       	nop
 288:	00 00       	nop
 28a:	00 00       	nop
 28c:	44 00       	.word	0x0044	; ????
 28e:	65 00       	.word	0x0065	; ????
 290:	c4 00       	.word	0x00c4	; ????
 292:	00 00       	nop
 294:	00 00       	nop
 296:	00 00       	nop
 298:	44 00       	.word	0x0044	; ????
 29a:	66 00       	.word	0x0066	; ????
 29c:	c8 00       	.word	0x00c8	; ????
 29e:	00 00       	nop
 2a0:	00 00       	nop
 2a2:	00 00       	nop
 2a4:	44 00       	.word	0x0044	; ????
 2a6:	67 00       	.word	0x0067	; ????
 2a8:	cc 00       	.word	0x00cc	; ????
 2aa:	00 00       	nop
 2ac:	00 00       	nop
 2ae:	00 00       	nop
 2b0:	44 00       	.word	0x0044	; ????
 2b2:	68 00       	.word	0x0068	; ????
 2b4:	d0 00       	.word	0x00d0	; ????
 2b6:	00 00       	nop
 2b8:	00 00       	nop
 2ba:	00 00       	nop
 2bc:	44 00       	.word	0x0044	; ????
 2be:	69 00       	.word	0x0069	; ????
 2c0:	d4 00       	.word	0x00d4	; ????
 2c2:	00 00       	nop
 2c4:	00 00       	nop
 2c6:	00 00       	nop
 2c8:	44 00       	.word	0x0044	; ????
 2ca:	6a 00       	.word	0x006a	; ????
 2cc:	d8 00       	.word	0x00d8	; ????
 2ce:	00 00       	nop
 2d0:	00 00       	nop
 2d2:	00 00       	nop
 2d4:	44 00       	.word	0x0044	; ????
 2d6:	6b 00       	.word	0x006b	; ????
 2d8:	dc 00       	.word	0x00dc	; ????
 2da:	00 00       	nop
 2dc:	00 00       	nop
 2de:	00 00       	nop
 2e0:	44 00       	.word	0x0044	; ????
 2e2:	6c 00       	.word	0x006c	; ????
 2e4:	e0 00       	.word	0x00e0	; ????
 2e6:	00 00       	nop
 2e8:	00 00       	nop
 2ea:	00 00       	nop
 2ec:	44 00       	.word	0x0044	; ????
 2ee:	6d 00       	.word	0x006d	; ????
 2f0:	e4 00       	.word	0x00e4	; ????
 2f2:	00 00       	nop
 2f4:	00 00       	nop
 2f6:	00 00       	nop
 2f8:	44 00       	.word	0x0044	; ????
 2fa:	6e 00       	.word	0x006e	; ????
 2fc:	e4 00       	.word	0x00e4	; ????
 2fe:	00 00       	nop
 300:	00 00       	nop
 302:	00 00       	nop
 304:	44 00       	.word	0x0044	; ????
 306:	6f 00       	.word	0x006f	; ????
 308:	e4 00       	.word	0x00e4	; ????
 30a:	00 00       	nop
 30c:	00 00       	nop
 30e:	00 00       	nop
 310:	44 00       	.word	0x0044	; ????
 312:	70 00       	.word	0x0070	; ????
 314:	e4 00       	.word	0x00e4	; ????
 316:	00 00       	nop
 318:	00 00       	nop
 31a:	00 00       	nop
 31c:	44 00       	.word	0x0044	; ????
 31e:	71 00       	.word	0x0071	; ????
 320:	e4 00       	.word	0x00e4	; ????
 322:	00 00       	nop
 324:	00 00       	nop
 326:	00 00       	nop
 328:	44 00       	.word	0x0044	; ????
 32a:	72 00       	.word	0x0072	; ????
 32c:	e4 00       	.word	0x00e4	; ????
 32e:	00 00       	nop
 330:	00 00       	nop
 332:	00 00       	nop
 334:	44 00       	.word	0x0044	; ????
 336:	73 00       	.word	0x0073	; ????
 338:	e4 00       	.word	0x00e4	; ????
 33a:	00 00       	nop
 33c:	00 00       	nop
 33e:	00 00       	nop
 340:	44 00       	.word	0x0044	; ????
 342:	74 00       	.word	0x0074	; ????
 344:	e4 00       	.word	0x00e4	; ????
 346:	00 00       	nop
 348:	00 00       	nop
 34a:	00 00       	nop
 34c:	44 00       	.word	0x0044	; ????
 34e:	75 00       	.word	0x0075	; ????
 350:	e4 00       	.word	0x00e4	; ????
 352:	00 00       	nop
 354:	00 00       	nop
 356:	00 00       	nop
 358:	44 00       	.word	0x0044	; ????
 35a:	76 00       	.word	0x0076	; ????
 35c:	e4 00       	.word	0x00e4	; ????
 35e:	00 00       	nop
 360:	00 00       	nop
 362:	00 00       	nop
 364:	44 00       	.word	0x0044	; ????
 366:	77 00       	.word	0x0077	; ????
 368:	e4 00       	.word	0x00e4	; ????
 36a:	00 00       	nop
 36c:	00 00       	nop
 36e:	00 00       	nop
 370:	44 00       	.word	0x0044	; ????
 372:	78 00       	.word	0x0078	; ????
 374:	e4 00       	.word	0x00e4	; ????
 376:	00 00       	nop
 378:	00 00       	nop
 37a:	00 00       	nop
 37c:	44 00       	.word	0x0044	; ????
 37e:	79 00       	.word	0x0079	; ????
 380:	e4 00       	.word	0x00e4	; ????
 382:	00 00       	nop
 384:	00 00       	nop
 386:	00 00       	nop
 388:	44 00       	.word	0x0044	; ????
 38a:	7a 00       	.word	0x007a	; ????
 38c:	e4 00       	.word	0x00e4	; ????
 38e:	00 00       	nop
 390:	00 00       	nop
 392:	00 00       	nop
 394:	44 00       	.word	0x0044	; ????
 396:	7b 00       	.word	0x007b	; ????
 398:	e4 00       	.word	0x00e4	; ????
 39a:	00 00       	nop
 39c:	00 00       	nop
 39e:	00 00       	nop
 3a0:	44 00       	.word	0x0044	; ????
 3a2:	7c 00       	.word	0x007c	; ????
 3a4:	e4 00       	.word	0x00e4	; ????
 3a6:	00 00       	nop
 3a8:	00 00       	nop
 3aa:	00 00       	nop
 3ac:	44 00       	.word	0x0044	; ????
 3ae:	7d 00       	.word	0x007d	; ????
 3b0:	e4 00       	.word	0x00e4	; ????
 3b2:	00 00       	nop
 3b4:	00 00       	nop
 3b6:	00 00       	nop
 3b8:	44 00       	.word	0x0044	; ????
 3ba:	7e 00       	.word	0x007e	; ????
 3bc:	e4 00       	.word	0x00e4	; ????
 3be:	00 00       	nop
 3c0:	00 00       	nop
 3c2:	00 00       	nop
 3c4:	44 00       	.word	0x0044	; ????
 3c6:	7f 00       	.word	0x007f	; ????
 3c8:	e4 00       	.word	0x00e4	; ????
 3ca:	00 00       	nop
 3cc:	00 00       	nop
 3ce:	00 00       	nop
 3d0:	44 00       	.word	0x0044	; ????
 3d2:	80 00       	.word	0x0080	; ????
 3d4:	e4 00       	.word	0x00e4	; ????
 3d6:	00 00       	nop
 3d8:	00 00       	nop
 3da:	00 00       	nop
 3dc:	44 00       	.word	0x0044	; ????
 3de:	81 00       	.word	0x0081	; ????
 3e0:	e4 00       	.word	0x00e4	; ????
 3e2:	00 00       	nop
 3e4:	00 00       	nop
 3e6:	00 00       	nop
 3e8:	44 00       	.word	0x0044	; ????
 3ea:	82 00       	.word	0x0082	; ????
 3ec:	e4 00       	.word	0x00e4	; ????
 3ee:	00 00       	nop
 3f0:	00 00       	nop
 3f2:	00 00       	nop
 3f4:	44 00       	.word	0x0044	; ????
 3f6:	83 00       	.word	0x0083	; ????
 3f8:	e4 00       	.word	0x00e4	; ????
 3fa:	00 00       	nop
 3fc:	00 00       	nop
 3fe:	00 00       	nop
 400:	44 00       	.word	0x0044	; ????
 402:	84 00       	.word	0x0084	; ????
 404:	e4 00       	.word	0x00e4	; ????
 406:	00 00       	nop
 408:	00 00       	nop
 40a:	00 00       	nop
 40c:	44 00       	.word	0x0044	; ????
 40e:	85 00       	.word	0x0085	; ????
 410:	e4 00       	.word	0x00e4	; ????
 412:	00 00       	nop
 414:	00 00       	nop
 416:	00 00       	nop
 418:	44 00       	.word	0x0044	; ????
 41a:	86 00       	.word	0x0086	; ????
 41c:	e4 00       	.word	0x00e4	; ????
 41e:	00 00       	nop
 420:	00 00       	nop
 422:	00 00       	nop
 424:	44 00       	.word	0x0044	; ????
 426:	87 00       	.word	0x0087	; ????
 428:	e4 00       	.word	0x00e4	; ????
 42a:	00 00       	nop
 42c:	00 00       	nop
 42e:	00 00       	nop
 430:	44 00       	.word	0x0044	; ????
 432:	88 00       	.word	0x0088	; ????
 434:	e4 00       	.word	0x00e4	; ????
 436:	00 00       	nop
 438:	00 00       	nop
 43a:	00 00       	nop
 43c:	44 00       	.word	0x0044	; ????
 43e:	89 00       	.word	0x0089	; ????
 440:	e4 00       	.word	0x00e4	; ????
 442:	00 00       	nop
 444:	00 00       	nop
 446:	00 00       	nop
 448:	44 00       	.word	0x0044	; ????
 44a:	8a 00       	.word	0x008a	; ????
 44c:	e4 00       	.word	0x00e4	; ????
 44e:	00 00       	nop
 450:	00 00       	nop
 452:	00 00       	nop
 454:	44 00       	.word	0x0044	; ????
 456:	8b 00       	.word	0x008b	; ????
 458:	e4 00       	.word	0x00e4	; ????
 45a:	00 00       	nop
 45c:	00 00       	nop
 45e:	00 00       	nop
 460:	44 00       	.word	0x0044	; ????
 462:	8c 00       	.word	0x008c	; ????
 464:	e4 00       	.word	0x00e4	; ????
 466:	00 00       	nop
 468:	00 00       	nop
 46a:	00 00       	nop
 46c:	44 00       	.word	0x0044	; ????
 46e:	8d 00       	.word	0x008d	; ????
 470:	e4 00       	.word	0x00e4	; ????
 472:	00 00       	nop
 474:	00 00       	nop
 476:	00 00       	nop
 478:	44 00       	.word	0x0044	; ????
 47a:	8e 00       	.word	0x008e	; ????
 47c:	e4 00       	.word	0x00e4	; ????
 47e:	00 00       	nop
 480:	00 00       	nop
 482:	00 00       	nop
 484:	44 00       	.word	0x0044	; ????
 486:	8f 00       	.word	0x008f	; ????
 488:	e4 00       	.word	0x00e4	; ????
 48a:	00 00       	nop
 48c:	00 00       	nop
 48e:	00 00       	nop
 490:	44 00       	.word	0x0044	; ????
 492:	90 00       	.word	0x0090	; ????
 494:	e4 00       	.word	0x00e4	; ????
 496:	00 00       	nop
 498:	00 00       	nop
 49a:	00 00       	nop
 49c:	44 00       	.word	0x0044	; ????
 49e:	91 00       	.word	0x0091	; ????
 4a0:	e4 00       	.word	0x00e4	; ????
 4a2:	00 00       	nop
 4a4:	00 00       	nop
 4a6:	00 00       	nop
 4a8:	44 00       	.word	0x0044	; ????
 4aa:	92 00       	.word	0x0092	; ????
 4ac:	e4 00       	.word	0x00e4	; ????
 4ae:	00 00       	nop
 4b0:	00 00       	nop
 4b2:	00 00       	nop
 4b4:	44 00       	.word	0x0044	; ????
 4b6:	93 00       	.word	0x0093	; ????
 4b8:	e4 00       	.word	0x00e4	; ????
 4ba:	00 00       	nop
 4bc:	00 00       	nop
 4be:	00 00       	nop
 4c0:	44 00       	.word	0x0044	; ????
 4c2:	94 00       	.word	0x0094	; ????
 4c4:	e4 00       	.word	0x00e4	; ????
 4c6:	00 00       	nop
 4c8:	00 00       	nop
 4ca:	00 00       	nop
 4cc:	44 00       	.word	0x0044	; ????
 4ce:	95 00       	.word	0x0095	; ????
 4d0:	e4 00       	.word	0x00e4	; ????
 4d2:	00 00       	nop
 4d4:	00 00       	nop
 4d6:	00 00       	nop
 4d8:	44 00       	.word	0x0044	; ????
 4da:	96 00       	.word	0x0096	; ????
 4dc:	e4 00       	.word	0x00e4	; ????
 4de:	00 00       	nop
 4e0:	00 00       	nop
 4e2:	00 00       	nop
 4e4:	44 00       	.word	0x0044	; ????
 4e6:	97 00       	.word	0x0097	; ????
 4e8:	e4 00       	.word	0x00e4	; ????
 4ea:	00 00       	nop
 4ec:	00 00       	nop
 4ee:	00 00       	nop
 4f0:	44 00       	.word	0x0044	; ????
 4f2:	98 00       	.word	0x0098	; ????
 4f4:	e4 00       	.word	0x00e4	; ????
 4f6:	00 00       	nop
 4f8:	00 00       	nop
 4fa:	00 00       	nop
 4fc:	44 00       	.word	0x0044	; ????
 4fe:	99 00       	.word	0x0099	; ????
 500:	e4 00       	.word	0x00e4	; ????
 502:	00 00       	nop
 504:	00 00       	nop
 506:	00 00       	nop
 508:	44 00       	.word	0x0044	; ????
 50a:	9a 00       	.word	0x009a	; ????
 50c:	e4 00       	.word	0x00e4	; ????
 50e:	00 00       	nop
 510:	00 00       	nop
 512:	00 00       	nop
 514:	44 00       	.word	0x0044	; ????
 516:	9b 00       	.word	0x009b	; ????
 518:	e4 00       	.word	0x00e4	; ????
 51a:	00 00       	nop
 51c:	00 00       	nop
 51e:	00 00       	nop
 520:	44 00       	.word	0x0044	; ????
 522:	9c 00       	.word	0x009c	; ????
 524:	e4 00       	.word	0x00e4	; ????
 526:	00 00       	nop
 528:	00 00       	nop
 52a:	00 00       	nop
 52c:	44 00       	.word	0x0044	; ????
 52e:	9d 00       	.word	0x009d	; ????
 530:	e4 00       	.word	0x00e4	; ????
 532:	00 00       	nop
 534:	00 00       	nop
 536:	00 00       	nop
 538:	44 00       	.word	0x0044	; ????
 53a:	9e 00       	.word	0x009e	; ????
 53c:	e4 00       	.word	0x00e4	; ????
 53e:	00 00       	nop
 540:	00 00       	nop
 542:	00 00       	nop
 544:	44 00       	.word	0x0044	; ????
 546:	9f 00       	.word	0x009f	; ????
 548:	e4 00       	.word	0x00e4	; ????
 54a:	00 00       	nop
 54c:	00 00       	nop
 54e:	00 00       	nop
 550:	44 00       	.word	0x0044	; ????
 552:	a0 00       	.word	0x00a0	; ????
 554:	e4 00       	.word	0x00e4	; ????
 556:	00 00       	nop
 558:	00 00       	nop
 55a:	00 00       	nop
 55c:	44 00       	.word	0x0044	; ????
 55e:	a1 00       	.word	0x00a1	; ????
 560:	e4 00       	.word	0x00e4	; ????
 562:	00 00       	nop
 564:	00 00       	nop
 566:	00 00       	nop
 568:	44 00       	.word	0x0044	; ????
 56a:	a2 00       	.word	0x00a2	; ????
 56c:	e4 00       	.word	0x00e4	; ????
 56e:	00 00       	nop
 570:	00 00       	nop
 572:	00 00       	nop
 574:	44 00       	.word	0x0044	; ????
 576:	a3 00       	.word	0x00a3	; ????
 578:	e4 00       	.word	0x00e4	; ????
 57a:	00 00       	nop
 57c:	00 00       	nop
 57e:	00 00       	nop
 580:	44 00       	.word	0x0044	; ????
 582:	a4 00       	.word	0x00a4	; ????
 584:	e4 00       	.word	0x00e4	; ????
 586:	00 00       	nop
 588:	00 00       	nop
 58a:	00 00       	nop
 58c:	44 00       	.word	0x0044	; ????
 58e:	a5 00       	.word	0x00a5	; ????
 590:	e4 00       	.word	0x00e4	; ????
 592:	00 00       	nop
 594:	00 00       	nop
 596:	00 00       	nop
 598:	44 00       	.word	0x0044	; ????
 59a:	a6 00       	.word	0x00a6	; ????
 59c:	e4 00       	.word	0x00e4	; ????
 59e:	00 00       	nop
 5a0:	00 00       	nop
 5a2:	00 00       	nop
 5a4:	44 00       	.word	0x0044	; ????
 5a6:	a7 00       	.word	0x00a7	; ????
 5a8:	e4 00       	.word	0x00e4	; ????
 5aa:	00 00       	nop
 5ac:	00 00       	nop
 5ae:	00 00       	nop
 5b0:	44 00       	.word	0x0044	; ????
 5b2:	a8 00       	.word	0x00a8	; ????
 5b4:	e4 00       	.word	0x00e4	; ????
 5b6:	00 00       	nop
 5b8:	00 00       	nop
 5ba:	00 00       	nop
 5bc:	44 00       	.word	0x0044	; ????
 5be:	a9 00       	.word	0x00a9	; ????
 5c0:	e4 00       	.word	0x00e4	; ????
 5c2:	00 00       	nop
 5c4:	00 00       	nop
 5c6:	00 00       	nop
 5c8:	44 00       	.word	0x0044	; ????
 5ca:	aa 00       	.word	0x00aa	; ????
 5cc:	e4 00       	.word	0x00e4	; ????
 5ce:	00 00       	nop
 5d0:	00 00       	nop
 5d2:	00 00       	nop
 5d4:	44 00       	.word	0x0044	; ????
 5d6:	ab 00       	.word	0x00ab	; ????
 5d8:	e4 00       	.word	0x00e4	; ????
 5da:	00 00       	nop
 5dc:	00 00       	nop
 5de:	00 00       	nop
 5e0:	44 00       	.word	0x0044	; ????
 5e2:	ac 00       	.word	0x00ac	; ????
 5e4:	e4 00       	.word	0x00e4	; ????
 5e6:	00 00       	nop
 5e8:	00 00       	nop
 5ea:	00 00       	nop
 5ec:	44 00       	.word	0x0044	; ????
 5ee:	ad 00       	.word	0x00ad	; ????
 5f0:	e4 00       	.word	0x00e4	; ????
 5f2:	00 00       	nop
 5f4:	00 00       	nop
 5f6:	00 00       	nop
 5f8:	44 00       	.word	0x0044	; ????
 5fa:	ae 00       	.word	0x00ae	; ????
 5fc:	e4 00       	.word	0x00e4	; ????
 5fe:	00 00       	nop
 600:	00 00       	nop
 602:	00 00       	nop
 604:	44 00       	.word	0x0044	; ????
 606:	af 00       	.word	0x00af	; ????
 608:	e4 00       	.word	0x00e4	; ????
 60a:	00 00       	nop
 60c:	00 00       	nop
 60e:	00 00       	nop
 610:	44 00       	.word	0x0044	; ????
 612:	b0 00       	.word	0x00b0	; ????
 614:	e4 00       	.word	0x00e4	; ????
 616:	00 00       	nop
 618:	00 00       	nop
 61a:	00 00       	nop
 61c:	44 00       	.word	0x0044	; ????
 61e:	b1 00       	.word	0x00b1	; ????
 620:	e4 00       	.word	0x00e4	; ????
 622:	00 00       	nop
 624:	00 00       	nop
 626:	00 00       	nop
 628:	44 00       	.word	0x0044	; ????
 62a:	b2 00       	.word	0x00b2	; ????
 62c:	e4 00       	.word	0x00e4	; ????
 62e:	00 00       	nop
 630:	00 00       	nop
 632:	00 00       	nop
 634:	44 00       	.word	0x0044	; ????
 636:	b3 00       	.word	0x00b3	; ????
 638:	e4 00       	.word	0x00e4	; ????
 63a:	00 00       	nop
 63c:	00 00       	nop
 63e:	00 00       	nop
 640:	24 00       	.word	0x0024	; ????
 642:	00 00       	nop
 644:	e4 00       	.word	0x00e4	; ????
 646:	00 00       	nop
 648:	41 00       	.word	0x0041	; ????
 64a:	00 00       	nop
 64c:	24 00       	.word	0x0024	; ????
 64e:	c0 00       	.word	0x00c0	; ????
 650:	0c 01       	movw	r0, r24
 652:	00 00       	nop
 654:	00 00       	nop
 656:	00 00       	nop
 658:	44 00       	.word	0x0044	; ????
 65a:	c3 00       	.word	0x00c3	; ????
	...
 664:	24 00       	.word	0x0024	; ????
 666:	00 00       	nop
 668:	04 00       	.word	0x0004	; ????
 66a:	00 00       	nop
 66c:	00 00       	nop
 66e:	00 00       	nop
 670:	44 00       	.word	0x0044	; ????
 672:	d8 00       	.word	0x00d8	; ????
 674:	e4 00       	.word	0x00e4	; ????
 676:	00 00       	nop
 678:	00 00       	nop
 67a:	00 00       	nop
 67c:	44 00       	.word	0x0044	; ????
 67e:	d9 00       	.word	0x00d9	; ????
 680:	e6 00       	.word	0x00e6	; ????
 682:	00 00       	nop
 684:	00 00       	nop
 686:	00 00       	nop
 688:	44 00       	.word	0x0044	; ????
 68a:	da 00       	.word	0x00da	; ????
 68c:	e8 00       	.word	0x00e8	; ????
 68e:	00 00       	nop
 690:	00 00       	nop
 692:	00 00       	nop
 694:	44 00       	.word	0x0044	; ????
 696:	dc 00       	.word	0x00dc	; ????
 698:	ea 00       	.word	0x00ea	; ????
 69a:	00 00       	nop
 69c:	00 00       	nop
 69e:	00 00       	nop
 6a0:	44 00       	.word	0x0044	; ????
 6a2:	dd 00       	.word	0x00dd	; ????
 6a4:	ec 00       	.word	0x00ec	; ????
 6a6:	00 00       	nop
 6a8:	00 00       	nop
 6aa:	00 00       	nop
 6ac:	44 00       	.word	0x0044	; ????
 6ae:	df 00       	.word	0x00df	; ????
 6b0:	ee 00       	.word	0x00ee	; ????
 6b2:	00 00       	nop
 6b4:	00 00       	nop
 6b6:	00 00       	nop
 6b8:	44 00       	.word	0x0044	; ????
 6ba:	e2 00       	.word	0x00e2	; ????
 6bc:	f0 00       	.word	0x00f0	; ????
 6be:	00 00       	nop
 6c0:	00 00       	nop
 6c2:	00 00       	nop
 6c4:	44 00       	.word	0x0044	; ????
 6c6:	e3 00       	.word	0x00e3	; ????
 6c8:	f2 00       	.word	0x00f2	; ????
 6ca:	00 00       	nop
 6cc:	00 00       	nop
 6ce:	00 00       	nop
 6d0:	44 00       	.word	0x0044	; ????
 6d2:	24 01       	movw	r4, r8
 6d4:	04 01       	movw	r0, r8
 6d6:	00 00       	nop
 6d8:	00 00       	nop
 6da:	00 00       	nop
 6dc:	44 00       	.word	0x0044	; ????
 6de:	25 01       	movw	r4, r10
 6e0:	08 01       	movw	r0, r16
 6e2:	00 00       	nop
 6e4:	54 00       	.word	0x0054	; ????
 6e6:	00 00       	nop
 6e8:	64 00       	.word	0x0064	; ????
 6ea:	02 00       	.word	0x0002	; ????
 6ec:	10 01       	movw	r2, r0
 6ee:	00 00       	nop
 6f0:	73 00       	.word	0x0073	; ????
 6f2:	00 00       	nop
 6f4:	64 00       	.word	0x0064	; ????
 6f6:	02 00       	.word	0x0002	; ????
 6f8:	10 01       	movw	r2, r0
 6fa:	00 00       	nop
 6fc:	79 00       	.word	0x0079	; ????
 6fe:	00 00       	nop
 700:	3c 00       	.word	0x003c	; ????
 702:	00 00       	nop
 704:	00 00       	nop
 706:	00 00       	nop
 708:	88 00       	.word	0x0088	; ????
 70a:	00 00       	nop
 70c:	80 00       	.word	0x0080	; ????
 70e:	00 00       	nop
 710:	00 00       	nop
 712:	00 00       	nop
 714:	a8 00       	.word	0x00a8	; ????
 716:	00 00       	nop
 718:	80 00       	.word	0x0080	; ????
 71a:	00 00       	nop
 71c:	00 00       	nop
 71e:	00 00       	nop
 720:	c2 00       	.word	0x00c2	; ????
 722:	00 00       	nop
 724:	80 00       	.word	0x0080	; ????
 726:	00 00       	nop
 728:	00 00       	nop
 72a:	00 00       	nop
 72c:	f9 00       	.word	0x00f9	; ????
 72e:	00 00       	nop
 730:	80 00       	.word	0x0080	; ????
 732:	00 00       	nop
 734:	00 00       	nop
 736:	00 00       	nop
 738:	1f 01       	movw	r2, r30
 73a:	00 00       	nop
 73c:	80 00       	.word	0x0080	; ????
 73e:	00 00       	nop
 740:	00 00       	nop
 742:	00 00       	nop
 744:	54 01       	movw	r10, r8
 746:	00 00       	nop
 748:	80 00       	.word	0x0080	; ????
 74a:	00 00       	nop
 74c:	00 00       	nop
 74e:	00 00       	nop
 750:	a5 01       	movw	r20, r10
 752:	00 00       	nop
 754:	80 00       	.word	0x0080	; ????
 756:	00 00       	nop
 758:	00 00       	nop
 75a:	00 00       	nop
 75c:	ea 01       	movw	r28, r20
 75e:	00 00       	nop
 760:	80 00       	.word	0x0080	; ????
 762:	00 00       	nop
 764:	00 00       	nop
 766:	00 00       	nop
 768:	10 02       	muls	r17, r16
 76a:	00 00       	nop
 76c:	80 00       	.word	0x0080	; ????
 76e:	00 00       	nop
 770:	00 00       	nop
 772:	00 00       	nop
 774:	3c 02       	muls	r19, r28
 776:	00 00       	nop
 778:	80 00       	.word	0x0080	; ????
 77a:	00 00       	nop
 77c:	00 00       	nop
 77e:	00 00       	nop
 780:	66 02       	muls	r22, r22
 782:	00 00       	nop
 784:	80 00       	.word	0x0080	; ????
 786:	00 00       	nop
 788:	00 00       	nop
 78a:	00 00       	nop
 78c:	8f 02       	muls	r24, r31
 78e:	00 00       	nop
 790:	80 00       	.word	0x0080	; ????
 792:	00 00       	nop
 794:	00 00       	nop
 796:	00 00       	nop
 798:	a9 02       	muls	r26, r25
 79a:	00 00       	nop
 79c:	80 00       	.word	0x0080	; ????
 79e:	00 00       	nop
 7a0:	00 00       	nop
 7a2:	00 00       	nop
 7a4:	c4 02       	muls	r28, r20
 7a6:	00 00       	nop
 7a8:	80 00       	.word	0x0080	; ????
 7aa:	00 00       	nop
 7ac:	00 00       	nop
 7ae:	00 00       	nop
 7b0:	e4 02       	muls	r30, r20
 7b2:	00 00       	nop
 7b4:	80 00       	.word	0x0080	; ????
 7b6:	00 00       	nop
 7b8:	00 00       	nop
 7ba:	00 00       	nop
 7bc:	f8 02       	muls	r31, r24
 7be:	00 00       	nop
 7c0:	24 00       	.word	0x0024	; ????
 7c2:	04 00       	.word	0x0004	; ????
 7c4:	10 01       	movw	r2, r0
 7c6:	00 00       	nop
 7c8:	00 00       	nop
 7ca:	00 00       	nop
 7cc:	2e 00       	.word	0x002e	; ????
 7ce:	00 00       	nop
 7d0:	10 01       	movw	r2, r0
 7d2:	00 00       	nop
 7d4:	00 00       	nop
 7d6:	00 00       	nop
 7d8:	44 00       	.word	0x0044	; ????
 7da:	05 00       	.word	0x0005	; ????
	...
 7e4:	44 00       	.word	0x0044	; ????
 7e6:	06 00       	.word	0x0006	; ????
	...
 7f0:	24 00       	.word	0x0024	; ????
 7f2:	00 00       	nop
 7f4:	08 00       	.word	0x0008	; ????
 7f6:	00 00       	nop
 7f8:	00 00       	nop
 7fa:	00 00       	nop
 7fc:	4e 00       	.word	0x004e	; ????
 7fe:	00 00       	nop
 800:	18 01       	movw	r2, r16
 802:	00 00       	nop
 804:	00 00       	nop
 806:	00 00       	nop
 808:	64 00       	.word	0x0064	; ????
 80a:	00 00       	nop
 80c:	18 01       	movw	r2, r16
 80e:	00 00       	nop
 810:	54 00       	.word	0x0054	; ????
 812:	00 00       	nop
 814:	64 00       	.word	0x0064	; ????
 816:	02 00       	.word	0x0002	; ????
 818:	18 01       	movw	r2, r16
 81a:	00 00       	nop
 81c:	08 03       	fmul	r16, r16
 81e:	00 00       	nop
 820:	64 00       	.word	0x0064	; ????
 822:	02 00       	.word	0x0002	; ????
 824:	18 01       	movw	r2, r16
 826:	00 00       	nop
 828:	79 00       	.word	0x0079	; ????
 82a:	00 00       	nop
 82c:	3c 00       	.word	0x003c	; ????
 82e:	00 00       	nop
 830:	00 00       	nop
 832:	00 00       	nop
 834:	88 00       	.word	0x0088	; ????
 836:	00 00       	nop
 838:	80 00       	.word	0x0080	; ????
 83a:	00 00       	nop
 83c:	00 00       	nop
 83e:	00 00       	nop
 840:	a8 00       	.word	0x00a8	; ????
 842:	00 00       	nop
 844:	80 00       	.word	0x0080	; ????
 846:	00 00       	nop
 848:	00 00       	nop
 84a:	00 00       	nop
 84c:	c2 00       	.word	0x00c2	; ????
 84e:	00 00       	nop
 850:	80 00       	.word	0x0080	; ????
 852:	00 00       	nop
 854:	00 00       	nop
 856:	00 00       	nop
 858:	f9 00       	.word	0x00f9	; ????
 85a:	00 00       	nop
 85c:	80 00       	.word	0x0080	; ????
 85e:	00 00       	nop
 860:	00 00       	nop
 862:	00 00       	nop
 864:	1f 01       	movw	r2, r30
 866:	00 00       	nop
 868:	80 00       	.word	0x0080	; ????
 86a:	00 00       	nop
 86c:	00 00       	nop
 86e:	00 00       	nop
 870:	54 01       	movw	r10, r8
 872:	00 00       	nop
 874:	80 00       	.word	0x0080	; ????
 876:	00 00       	nop
 878:	00 00       	nop
 87a:	00 00       	nop
 87c:	a5 01       	movw	r20, r10
 87e:	00 00       	nop
 880:	80 00       	.word	0x0080	; ????
 882:	00 00       	nop
 884:	00 00       	nop
 886:	00 00       	nop
 888:	ea 01       	movw	r28, r20
 88a:	00 00       	nop
 88c:	80 00       	.word	0x0080	; ????
 88e:	00 00       	nop
 890:	00 00       	nop
 892:	00 00       	nop
 894:	10 02       	muls	r17, r16
 896:	00 00       	nop
 898:	80 00       	.word	0x0080	; ????
 89a:	00 00       	nop
 89c:	00 00       	nop
 89e:	00 00       	nop
 8a0:	3c 02       	muls	r19, r28
 8a2:	00 00       	nop
 8a4:	80 00       	.word	0x0080	; ????
 8a6:	00 00       	nop
 8a8:	00 00       	nop
 8aa:	00 00       	nop
 8ac:	66 02       	muls	r22, r22
 8ae:	00 00       	nop
 8b0:	80 00       	.word	0x0080	; ????
 8b2:	00 00       	nop
 8b4:	00 00       	nop
 8b6:	00 00       	nop
 8b8:	8f 02       	muls	r24, r31
 8ba:	00 00       	nop
 8bc:	80 00       	.word	0x0080	; ????
 8be:	00 00       	nop
 8c0:	00 00       	nop
 8c2:	00 00       	nop
 8c4:	a9 02       	muls	r26, r25
 8c6:	00 00       	nop
 8c8:	80 00       	.word	0x0080	; ????
 8ca:	00 00       	nop
 8cc:	00 00       	nop
 8ce:	00 00       	nop
 8d0:	c4 02       	muls	r28, r20
 8d2:	00 00       	nop
 8d4:	80 00       	.word	0x0080	; ????
 8d6:	00 00       	nop
 8d8:	00 00       	nop
 8da:	00 00       	nop
 8dc:	e4 02       	muls	r30, r20
 8de:	00 00       	nop
 8e0:	80 00       	.word	0x0080	; ????
 8e2:	00 00       	nop
 8e4:	00 00       	nop
 8e6:	00 00       	nop
 8e8:	10 03       	mulsu	r17, r16
 8ea:	00 00       	nop
 8ec:	82 00       	.word	0x0082	; ????
 8ee:	00 00       	nop
 8f0:	2d 2b       	or	r18, r29
 8f2:	00 00       	nop
 8f4:	44 03       	mulsu	r20, r20
 8f6:	00 00       	nop
 8f8:	82 00       	.word	0x0082	; ????
 8fa:	00 00       	nop
 8fc:	25 0f       	add	r18, r21
 8fe:	00 00       	nop
 900:	7b 03       	fmul	r23, r19
 902:	00 00       	nop
 904:	82 00       	.word	0x0082	; ????
 906:	00 00       	nop
 908:	00 00       	nop
 90a:	00 00       	nop
 90c:	a3 03       	fmuls	r18, r19
 90e:	00 00       	nop
 910:	82 00       	.word	0x0082	; ????
 912:	00 00       	nop
 914:	33 b8       	out	0x03, r3	; 3
 916:	00 00       	nop
 918:	d8 03       	fmulsu	r21, r16
 91a:	00 00       	nop
 91c:	80 00       	.word	0x0080	; ????
 91e:	79 00       	.word	0x0079	; ????
 920:	00 00       	nop
 922:	00 00       	nop
 924:	ed 03       	fmulsu	r22, r21
 926:	00 00       	nop
 928:	80 00       	.word	0x0080	; ????
 92a:	7a 00       	.word	0x007a	; ????
 92c:	00 00       	nop
 92e:	00 00       	nop
 930:	03 04       	cpc	r0, r3
 932:	00 00       	nop
 934:	80 00       	.word	0x0080	; ????
 936:	7b 00       	.word	0x007b	; ????
 938:	00 00       	nop
 93a:	00 00       	nop
 93c:	18 04       	cpc	r1, r8
 93e:	00 00       	nop
 940:	80 00       	.word	0x0080	; ????
 942:	7c 00       	.word	0x007c	; ????
 944:	00 00       	nop
 946:	00 00       	nop
 948:	2e 04       	cpc	r2, r14
 94a:	00 00       	nop
 94c:	80 00       	.word	0x0080	; ????
 94e:	7d 00       	.word	0x007d	; ????
 950:	00 00       	nop
 952:	00 00       	nop
 954:	43 04       	cpc	r4, r3
 956:	00 00       	nop
 958:	80 00       	.word	0x0080	; ????
 95a:	7e 00       	.word	0x007e	; ????
 95c:	00 00       	nop
 95e:	00 00       	nop
 960:	59 04       	cpc	r5, r9
 962:	00 00       	nop
 964:	80 00       	.word	0x0080	; ????
 966:	80 00       	.word	0x0080	; ????
 968:	00 00       	nop
 96a:	00 00       	nop
 96c:	6e 04       	cpc	r6, r14
 96e:	00 00       	nop
 970:	80 00       	.word	0x0080	; ????
 972:	81 00       	.word	0x0081	; ????
 974:	00 00       	nop
 976:	00 00       	nop
 978:	84 04       	cpc	r8, r4
 97a:	00 00       	nop
 97c:	80 00       	.word	0x0080	; ????
 97e:	8e 00       	.word	0x008e	; ????
 980:	00 00       	nop
 982:	00 00       	nop
 984:	9a 04       	cpc	r9, r10
 986:	00 00       	nop
 988:	80 00       	.word	0x0080	; ????
 98a:	93 00       	.word	0x0093	; ????
 98c:	00 00       	nop
 98e:	00 00       	nop
 990:	b2 04       	cpc	r11, r2
 992:	00 00       	nop
 994:	80 00       	.word	0x0080	; ????
 996:	9f 00       	.word	0x009f	; ????
 998:	00 00       	nop
 99a:	00 00       	nop
 99c:	cd 04       	cpc	r12, r13
 99e:	00 00       	nop
 9a0:	80 00       	.word	0x0080	; ????
 9a2:	a4 00       	.word	0x00a4	; ????
 9a4:	00 00       	nop
 9a6:	00 00       	nop
 9a8:	e9 04       	cpc	r14, r9
 9aa:	00 00       	nop
 9ac:	80 00       	.word	0x0080	; ????
 9ae:	a9 00       	.word	0x00a9	; ????
 9b0:	00 00       	nop
 9b2:	00 00       	nop
 9b4:	05 05       	cpc	r16, r5
 9b6:	00 00       	nop
 9b8:	80 00       	.word	0x0080	; ????
 9ba:	ae 00       	.word	0x00ae	; ????
 9bc:	00 00       	nop
 9be:	00 00       	nop
 9c0:	22 05       	cpc	r18, r2
 9c2:	00 00       	nop
 9c4:	80 00       	.word	0x0080	; ????
 9c6:	b3 00       	.word	0x00b3	; ????
 9c8:	00 00       	nop
 9ca:	00 00       	nop
 9cc:	3e 05       	cpc	r19, r14
 9ce:	00 00       	nop
 9d0:	80 00       	.word	0x0080	; ????
 9d2:	b8 00       	.word	0x00b8	; ????
 9d4:	00 00       	nop
 9d6:	00 00       	nop
 9d8:	5b 05       	cpc	r21, r11
 9da:	00 00       	nop
 9dc:	80 00       	.word	0x0080	; ????
 9de:	c0 00       	.word	0x00c0	; ????
 9e0:	00 00       	nop
 9e2:	00 00       	nop
 9e4:	77 05       	cpc	r23, r7
 9e6:	00 00       	nop
 9e8:	80 00       	.word	0x0080	; ????
 9ea:	c7 00       	.word	0x00c7	; ????
 9ec:	00 00       	nop
 9ee:	00 00       	nop
 9f0:	94 05       	cpc	r25, r4
 9f2:	00 00       	nop
 9f4:	80 00       	.word	0x0080	; ????
 9f6:	d5 00       	.word	0x00d5	; ????
 9f8:	00 00       	nop
 9fa:	00 00       	nop
 9fc:	ae 05       	cpc	r26, r14
 9fe:	00 00       	nop
 a00:	80 00       	.word	0x0080	; ????
 a02:	da 00       	.word	0x00da	; ????
 a04:	00 00       	nop
 a06:	00 00       	nop
 a08:	c9 05       	cpc	r28, r9
 a0a:	00 00       	nop
 a0c:	80 00       	.word	0x0080	; ????
 a0e:	df 00       	.word	0x00df	; ????
 a10:	00 00       	nop
 a12:	00 00       	nop
 a14:	e4 05       	cpc	r30, r4
 a16:	00 00       	nop
 a18:	80 00       	.word	0x0080	; ????
 a1a:	e4 00       	.word	0x00e4	; ????
 a1c:	00 00       	nop
 a1e:	00 00       	nop
 a20:	00 06       	cpc	r0, r16
 a22:	00 00       	nop
 a24:	80 00       	.word	0x0080	; ????
 a26:	e9 00       	.word	0x00e9	; ????
 a28:	00 00       	nop
 a2a:	00 00       	nop
 a2c:	1b 06       	cpc	r1, r27
 a2e:	00 00       	nop
 a30:	80 00       	.word	0x0080	; ????
 a32:	ee 00       	.word	0x00ee	; ????
 a34:	00 00       	nop
 a36:	00 00       	nop
 a38:	37 06       	cpc	r3, r23
 a3a:	00 00       	nop
 a3c:	80 00       	.word	0x0080	; ????
 a3e:	f6 00       	.word	0x00f6	; ????
 a40:	00 00       	nop
 a42:	00 00       	nop
 a44:	52 06       	cpc	r5, r18
 a46:	00 00       	nop
 a48:	80 00       	.word	0x0080	; ????
 a4a:	fd 00       	.word	0x00fd	; ????
 a4c:	00 00       	nop
 a4e:	00 00       	nop
 a50:	6e 06       	cpc	r6, r30
 a52:	00 00       	nop
 a54:	80 00       	.word	0x0080	; ????
 a56:	11 01       	movw	r2, r2
 a58:	00 00       	nop
 a5a:	00 00       	nop
 a5c:	85 06       	cpc	r8, r21
 a5e:	00 00       	nop
 a60:	80 00       	.word	0x0080	; ????
 a62:	16 01       	movw	r2, r12
	...
 a6c:	a2 00       	.word	0x00a2	; ????
	...
 a76:	00 00       	nop
 a78:	a2 00       	.word	0x00a2	; ????
 a7a:	00 00       	nop
 a7c:	00 00       	nop
 a7e:	00 00       	nop
 a80:	9d 06       	cpc	r9, r29
 a82:	00 00       	nop
 a84:	80 00       	.word	0x0080	; ????
 a86:	4d 00       	.word	0x004d	; ????
 a88:	00 00       	nop
 a8a:	00 00       	nop
 a8c:	b7 06       	cpc	r11, r23
 a8e:	00 00       	nop
 a90:	80 00       	.word	0x0080	; ????
 a92:	51 00       	.word	0x0051	; ????
	...
 a9c:	a2 00       	.word	0x00a2	; ????
 a9e:	00 00       	nop
 aa0:	00 00       	nop
 aa2:	00 00       	nop
 aa4:	d2 06       	cpc	r13, r18
 aa6:	00 00       	nop
 aa8:	82 00       	.word	0x0082	; ????
 aaa:	00 00       	nop
 aac:	89 0e       	add	r8, r25
 aae:	00 00       	nop
 ab0:	fa 06       	cpc	r15, r26
 ab2:	00 00       	nop
 ab4:	80 00       	.word	0x0080	; ????
 ab6:	28 00       	.word	0x0028	; ????
 ab8:	00 00       	nop
 aba:	00 00       	nop
 abc:	1e 07       	cpc	r17, r30
 abe:	00 00       	nop
 ac0:	80 00       	.word	0x0080	; ????
 ac2:	66 00       	.word	0x0066	; ????
	...
 acc:	a2 00       	.word	0x00a2	; ????
 ace:	00 00       	nop
 ad0:	00 00       	nop
 ad2:	00 00       	nop
 ad4:	33 07       	cpc	r19, r19
 ad6:	00 00       	nop
 ad8:	82 00       	.word	0x0082	; ????
 ada:	00 00       	nop
 adc:	d8 04       	cpc	r13, r8
 ade:	00 00       	nop
 ae0:	5b 07       	cpc	r21, r27
 ae2:	00 00       	nop
 ae4:	80 00       	.word	0x0080	; ????
 ae6:	d5 00       	.word	0x00d5	; ????
	...
 af0:	a2 00       	.word	0x00a2	; ????
 af2:	00 00       	nop
 af4:	00 00       	nop
 af6:	00 00       	nop
 af8:	6f 07       	cpc	r22, r31
 afa:	00 00       	nop
 afc:	80 00       	.word	0x0080	; ????
	...
 b06:	00 00       	nop
 b08:	a2 00       	.word	0x00a2	; ????
 b0a:	00 00       	nop
 b0c:	00 00       	nop
 b0e:	00 00       	nop
 b10:	32 08       	sbc	r3, r2
 b12:	00 00       	nop
 b14:	82 00       	.word	0x0082	; ????
 b16:	00 00       	nop
 b18:	00 00       	nop
 b1a:	00 00       	nop
 b1c:	67 08       	sbc	r6, r7
 b1e:	00 00       	nop
 b20:	82 00       	.word	0x0082	; ????
 b22:	00 00       	nop
 b24:	68 13       	cpse	r22, r24
 b26:	00 00       	nop
 b28:	9e 08       	sbc	r9, r14
 b2a:	00 00       	nop
 b2c:	80 00       	.word	0x0080	; ????
 b2e:	f4 00       	.word	0x00f4	; ????
	...
 b38:	a2 00       	.word	0x00a2	; ????
	...
 b42:	00 00       	nop
 b44:	a2 00       	.word	0x00a2	; ????
 b46:	00 00       	nop
 b48:	00 00       	nop
 b4a:	00 00       	nop
 b4c:	ec 08       	sbc	r14, r12
 b4e:	00 00       	nop
 b50:	24 00       	.word	0x0024	; ????
 b52:	28 00       	.word	0x0028	; ????
 b54:	18 01       	movw	r2, r16
 b56:	00 00       	nop
 b58:	00 00       	nop
 b5a:	00 00       	nop
 b5c:	2e 00       	.word	0x002e	; ????
 b5e:	00 00       	nop
 b60:	18 01       	movw	r2, r16
 b62:	00 00       	nop
 b64:	00 00       	nop
 b66:	00 00       	nop
 b68:	44 00       	.word	0x0044	; ????
 b6a:	29 00       	.word	0x0029	; ????
	...
 b74:	44 00       	.word	0x0044	; ????
 b76:	2a 00       	.word	0x002a	; ????
	...
 b80:	44 00       	.word	0x0044	; ????
 b82:	2b 00       	.word	0x002b	; ????
 b84:	04 00       	.word	0x0004	; ????
 b86:	00 00       	nop
 b88:	00 00       	nop
 b8a:	00 00       	nop
 b8c:	44 00       	.word	0x0044	; ????
 b8e:	2d 00       	.word	0x002d	; ????
 b90:	0a 00       	.word	0x000a	; ????
 b92:	00 00       	nop
 b94:	00 00       	nop
 b96:	00 00       	nop
 b98:	24 00       	.word	0x0024	; ????
 b9a:	00 00       	nop
 b9c:	12 00       	.word	0x0012	; ????
 b9e:	00 00       	nop
 ba0:	00 00       	nop
 ba2:	00 00       	nop
 ba4:	4e 00       	.word	0x004e	; ????
 ba6:	00 00       	nop
 ba8:	2a 01       	movw	r4, r20
 baa:	00 00       	nop
 bac:	00 09       	sbc	r16, r0
 bae:	00 00       	nop
 bb0:	24 00       	.word	0x0024	; ????
 bb2:	30 00       	.word	0x0030	; ????
 bb4:	2a 01       	movw	r4, r20
 bb6:	00 00       	nop
 bb8:	13 09       	sbc	r17, r3
 bba:	00 00       	nop
 bbc:	40 00       	.word	0x0040	; ????
 bbe:	30 00       	.word	0x0030	; ????
 bc0:	18 00       	.word	0x0018	; ????
 bc2:	00 00       	nop
 bc4:	00 00       	nop
 bc6:	00 00       	nop
 bc8:	2e 00       	.word	0x002e	; ????
 bca:	00 00       	nop
 bcc:	2a 01       	movw	r4, r20
 bce:	00 00       	nop
 bd0:	00 00       	nop
 bd2:	00 00       	nop
 bd4:	44 00       	.word	0x0044	; ????
 bd6:	31 00       	.word	0x0031	; ????
	...
 be0:	44 00       	.word	0x0044	; ????
 be2:	32 00       	.word	0x0032	; ????
	...
 bec:	44 00       	.word	0x0044	; ????
 bee:	2a 00       	.word	0x002a	; ????
 bf0:	08 00       	.word	0x0008	; ????
 bf2:	00 00       	nop
 bf4:	00 00       	nop
 bf6:	00 00       	nop
 bf8:	44 00       	.word	0x0044	; ????
 bfa:	2b 00       	.word	0x002b	; ????
 bfc:	0c 00       	.word	0x000c	; ????
 bfe:	00 00       	nop
 c00:	00 00       	nop
 c02:	00 00       	nop
 c04:	44 00       	.word	0x0044	; ????
 c06:	2d 00       	.word	0x002d	; ????
 c08:	12 00       	.word	0x0012	; ????
 c0a:	00 00       	nop
 c0c:	00 00       	nop
 c0e:	00 00       	nop
 c10:	44 00       	.word	0x0044	; ????
 c12:	35 00       	.word	0x0035	; ????
 c14:	18 00       	.word	0x0018	; ????
 c16:	00 00       	nop
 c18:	00 00       	nop
 c1a:	00 00       	nop
 c1c:	44 00       	.word	0x0044	; ????
 c1e:	37 00       	.word	0x0037	; ????
 c20:	1e 00       	.word	0x001e	; ????
 c22:	00 00       	nop
 c24:	00 00       	nop
 c26:	00 00       	nop
 c28:	44 00       	.word	0x0044	; ????
 c2a:	38 00       	.word	0x0038	; ????
 c2c:	26 00       	.word	0x0026	; ????
 c2e:	00 00       	nop
 c30:	00 00       	nop
 c32:	00 00       	nop
 c34:	24 00       	.word	0x0024	; ????
 c36:	00 00       	nop
 c38:	2c 00       	.word	0x002c	; ????
 c3a:	00 00       	nop
 c3c:	00 00       	nop
 c3e:	00 00       	nop
 c40:	4e 00       	.word	0x004e	; ????
 c42:	00 00       	nop
 c44:	56 01       	movw	r10, r12
 c46:	00 00       	nop
 c48:	1d 09       	sbc	r17, r13
 c4a:	00 00       	nop
 c4c:	26 00       	.word	0x0026	; ????
 c4e:	26 00       	.word	0x0026	; ????
 c50:	00 02       	muls	r16, r16
 c52:	80 00       	.word	0x0080	; ????
 c54:	00 00       	nop
 c56:	00 00       	nop
 c58:	64 00       	.word	0x0064	; ????
 c5a:	00 00       	nop
 c5c:	56 01       	movw	r10, r12
 c5e:	00 00       	nop
 c60:	54 00       	.word	0x0054	; ????
 c62:	00 00       	nop
 c64:	64 00       	.word	0x0064	; ????
 c66:	02 00       	.word	0x0002	; ????
 c68:	56 01       	movw	r10, r12
 c6a:	00 00       	nop
 c6c:	37 09       	sbc	r19, r7
 c6e:	00 00       	nop
 c70:	64 00       	.word	0x0064	; ????
 c72:	02 00       	.word	0x0002	; ????
 c74:	56 01       	movw	r10, r12
 c76:	00 00       	nop
 c78:	79 00       	.word	0x0079	; ????
 c7a:	00 00       	nop
 c7c:	3c 00       	.word	0x003c	; ????
 c7e:	00 00       	nop
 c80:	00 00       	nop
 c82:	00 00       	nop
 c84:	88 00       	.word	0x0088	; ????
 c86:	00 00       	nop
 c88:	80 00       	.word	0x0080	; ????
 c8a:	00 00       	nop
 c8c:	00 00       	nop
 c8e:	00 00       	nop
 c90:	a8 00       	.word	0x00a8	; ????
 c92:	00 00       	nop
 c94:	80 00       	.word	0x0080	; ????
 c96:	00 00       	nop
 c98:	00 00       	nop
 c9a:	00 00       	nop
 c9c:	c2 00       	.word	0x00c2	; ????
 c9e:	00 00       	nop
 ca0:	80 00       	.word	0x0080	; ????
 ca2:	00 00       	nop
 ca4:	00 00       	nop
 ca6:	00 00       	nop
 ca8:	f9 00       	.word	0x00f9	; ????
 caa:	00 00       	nop
 cac:	80 00       	.word	0x0080	; ????
 cae:	00 00       	nop
 cb0:	00 00       	nop
 cb2:	00 00       	nop
 cb4:	1f 01       	movw	r2, r30
 cb6:	00 00       	nop
 cb8:	80 00       	.word	0x0080	; ????
 cba:	00 00       	nop
 cbc:	00 00       	nop
 cbe:	00 00       	nop
 cc0:	54 01       	movw	r10, r8
 cc2:	00 00       	nop
 cc4:	80 00       	.word	0x0080	; ????
 cc6:	00 00       	nop
 cc8:	00 00       	nop
 cca:	00 00       	nop
 ccc:	a5 01       	movw	r20, r10
 cce:	00 00       	nop
 cd0:	80 00       	.word	0x0080	; ????
 cd2:	00 00       	nop
 cd4:	00 00       	nop
 cd6:	00 00       	nop
 cd8:	ea 01       	movw	r28, r20
 cda:	00 00       	nop
 cdc:	80 00       	.word	0x0080	; ????
 cde:	00 00       	nop
 ce0:	00 00       	nop
 ce2:	00 00       	nop
 ce4:	10 02       	muls	r17, r16
 ce6:	00 00       	nop
 ce8:	80 00       	.word	0x0080	; ????
 cea:	00 00       	nop
 cec:	00 00       	nop
 cee:	00 00       	nop
 cf0:	3c 02       	muls	r19, r28
 cf2:	00 00       	nop
 cf4:	80 00       	.word	0x0080	; ????
 cf6:	00 00       	nop
 cf8:	00 00       	nop
 cfa:	00 00       	nop
 cfc:	66 02       	muls	r22, r22
 cfe:	00 00       	nop
 d00:	80 00       	.word	0x0080	; ????
 d02:	00 00       	nop
 d04:	00 00       	nop
 d06:	00 00       	nop
 d08:	8f 02       	muls	r24, r31
 d0a:	00 00       	nop
 d0c:	80 00       	.word	0x0080	; ????
 d0e:	00 00       	nop
 d10:	00 00       	nop
 d12:	00 00       	nop
 d14:	a9 02       	muls	r26, r25
 d16:	00 00       	nop
 d18:	80 00       	.word	0x0080	; ????
 d1a:	00 00       	nop
 d1c:	00 00       	nop
 d1e:	00 00       	nop
 d20:	c4 02       	muls	r28, r20
 d22:	00 00       	nop
 d24:	80 00       	.word	0x0080	; ????
 d26:	00 00       	nop
 d28:	00 00       	nop
 d2a:	00 00       	nop
 d2c:	e4 02       	muls	r30, r20
 d2e:	00 00       	nop
 d30:	80 00       	.word	0x0080	; ????
 d32:	00 00       	nop
 d34:	00 00       	nop
 d36:	00 00       	nop
 d38:	10 03       	mulsu	r17, r16
 d3a:	00 00       	nop
 d3c:	c2 00       	.word	0x00c2	; ????
 d3e:	00 00       	nop
 d40:	2d 2b       	or	r18, r29
 d42:	00 00       	nop
 d44:	44 03       	mulsu	r20, r20
 d46:	00 00       	nop
 d48:	c2 00       	.word	0x00c2	; ????
 d4a:	00 00       	nop
 d4c:	25 0f       	add	r18, r21
 d4e:	00 00       	nop
 d50:	7b 03       	fmul	r23, r19
 d52:	00 00       	nop
 d54:	c2 00       	.word	0x00c2	; ????
 d56:	00 00       	nop
 d58:	00 00       	nop
 d5a:	00 00       	nop
 d5c:	a3 03       	fmuls	r18, r19
 d5e:	00 00       	nop
 d60:	c2 00       	.word	0x00c2	; ????
 d62:	00 00       	nop
 d64:	33 b8       	out	0x03, r3	; 3
 d66:	00 00       	nop
 d68:	d2 06       	cpc	r13, r18
 d6a:	00 00       	nop
 d6c:	c2 00       	.word	0x00c2	; ????
 d6e:	00 00       	nop
 d70:	89 0e       	add	r8, r25
 d72:	00 00       	nop
 d74:	33 07       	cpc	r19, r19
 d76:	00 00       	nop
 d78:	c2 00       	.word	0x00c2	; ????
 d7a:	00 00       	nop
 d7c:	d8 04       	cpc	r13, r8
 d7e:	00 00       	nop
 d80:	32 08       	sbc	r3, r2
 d82:	00 00       	nop
 d84:	c2 00       	.word	0x00c2	; ????
 d86:	00 00       	nop
 d88:	00 00       	nop
 d8a:	00 00       	nop
 d8c:	67 08       	sbc	r6, r7
 d8e:	00 00       	nop
 d90:	c2 00       	.word	0x00c2	; ????
 d92:	00 00       	nop
 d94:	68 13       	cpse	r22, r24
 d96:	00 00       	nop
 d98:	3e 09       	sbc	r19, r14
 d9a:	00 00       	nop
 d9c:	24 00       	.word	0x0024	; ????
 d9e:	30 00       	.word	0x0030	; ????
 da0:	56 01       	movw	r10, r12
 da2:	00 00       	nop
 da4:	00 00       	nop
 da6:	00 00       	nop
 da8:	2e 00       	.word	0x002e	; ????
 daa:	00 00       	nop
 dac:	56 01       	movw	r10, r12
 dae:	00 00       	nop
 db0:	00 00       	nop
 db2:	00 00       	nop
 db4:	44 00       	.word	0x0044	; ????
 db6:	31 00       	.word	0x0031	; ????
	...
 dc0:	44 00       	.word	0x0044	; ????
 dc2:	32 00       	.word	0x0032	; ????
	...
 dcc:	44 00       	.word	0x0044	; ????
 dce:	37 00       	.word	0x0037	; ????
 dd0:	08 00       	.word	0x0008	; ????
 dd2:	00 00       	nop
 dd4:	00 00       	nop
 dd6:	00 00       	nop
 dd8:	44 00       	.word	0x0044	; ????
 dda:	38 00       	.word	0x0038	; ????
 ddc:	10 00       	.word	0x0010	; ????
 dde:	00 00       	nop
 de0:	00 00       	nop
 de2:	00 00       	nop
 de4:	44 00       	.word	0x0044	; ????
 de6:	39 00       	.word	0x0039	; ????
 de8:	14 00       	.word	0x0014	; ????
 dea:	00 00       	nop
 dec:	00 00       	nop
 dee:	00 00       	nop
 df0:	44 00       	.word	0x0044	; ????
 df2:	34 00       	.word	0x0034	; ????
 df4:	16 00       	.word	0x0016	; ????
 df6:	00 00       	nop
 df8:	00 00       	nop
 dfa:	00 00       	nop
 dfc:	44 00       	.word	0x0044	; ????
 dfe:	35 00       	.word	0x0035	; ????
 e00:	1a 00       	.word	0x001a	; ????
 e02:	00 00       	nop
 e04:	00 00       	nop
 e06:	00 00       	nop
 e08:	24 00       	.word	0x0024	; ????
 e0a:	00 00       	nop
 e0c:	22 00       	.word	0x0022	; ????
 e0e:	00 00       	nop
 e10:	00 00       	nop
 e12:	00 00       	nop
 e14:	4e 00       	.word	0x004e	; ????
 e16:	00 00       	nop
 e18:	78 01       	movw	r14, r16
 e1a:	00 00       	nop
 e1c:	1d 09       	sbc	r17, r13
 e1e:	00 00       	nop
 e20:	26 00       	.word	0x0026	; ????
 e22:	26 00       	.word	0x0026	; ????
 e24:	01 02       	muls	r16, r17
 e26:	80 00       	.word	0x0080	; ????
 e28:	00 00       	nop
 e2a:	00 00       	nop
 e2c:	64 00       	.word	0x0064	; ????
 e2e:	00 00       	nop
 e30:	78 01       	movw	r14, r16
 e32:	00 00       	nop
 e34:	54 00       	.word	0x0054	; ????
 e36:	00 00       	nop
 e38:	64 00       	.word	0x0064	; ????
 e3a:	02 00       	.word	0x0002	; ????
 e3c:	78 01       	movw	r14, r16
 e3e:	00 00       	nop
 e40:	50 09       	sbc	r21, r0
 e42:	00 00       	nop
 e44:	64 00       	.word	0x0064	; ????
 e46:	02 00       	.word	0x0002	; ????
 e48:	78 01       	movw	r14, r16
 e4a:	00 00       	nop
 e4c:	79 00       	.word	0x0079	; ????
 e4e:	00 00       	nop
 e50:	3c 00       	.word	0x003c	; ????
 e52:	00 00       	nop
 e54:	00 00       	nop
 e56:	00 00       	nop
 e58:	88 00       	.word	0x0088	; ????
 e5a:	00 00       	nop
 e5c:	80 00       	.word	0x0080	; ????
 e5e:	00 00       	nop
 e60:	00 00       	nop
 e62:	00 00       	nop
 e64:	a8 00       	.word	0x00a8	; ????
 e66:	00 00       	nop
 e68:	80 00       	.word	0x0080	; ????
 e6a:	00 00       	nop
 e6c:	00 00       	nop
 e6e:	00 00       	nop
 e70:	c2 00       	.word	0x00c2	; ????
 e72:	00 00       	nop
 e74:	80 00       	.word	0x0080	; ????
 e76:	00 00       	nop
 e78:	00 00       	nop
 e7a:	00 00       	nop
 e7c:	f9 00       	.word	0x00f9	; ????
 e7e:	00 00       	nop
 e80:	80 00       	.word	0x0080	; ????
 e82:	00 00       	nop
 e84:	00 00       	nop
 e86:	00 00       	nop
 e88:	1f 01       	movw	r2, r30
 e8a:	00 00       	nop
 e8c:	80 00       	.word	0x0080	; ????
 e8e:	00 00       	nop
 e90:	00 00       	nop
 e92:	00 00       	nop
 e94:	54 01       	movw	r10, r8
 e96:	00 00       	nop
 e98:	80 00       	.word	0x0080	; ????
 e9a:	00 00       	nop
 e9c:	00 00       	nop
 e9e:	00 00       	nop
 ea0:	a5 01       	movw	r20, r10
 ea2:	00 00       	nop
 ea4:	80 00       	.word	0x0080	; ????
 ea6:	00 00       	nop
 ea8:	00 00       	nop
 eaa:	00 00       	nop
 eac:	ea 01       	movw	r28, r20
 eae:	00 00       	nop
 eb0:	80 00       	.word	0x0080	; ????
 eb2:	00 00       	nop
 eb4:	00 00       	nop
 eb6:	00 00       	nop
 eb8:	10 02       	muls	r17, r16
 eba:	00 00       	nop
 ebc:	80 00       	.word	0x0080	; ????
 ebe:	00 00       	nop
 ec0:	00 00       	nop
 ec2:	00 00       	nop
 ec4:	3c 02       	muls	r19, r28
 ec6:	00 00       	nop
 ec8:	80 00       	.word	0x0080	; ????
 eca:	00 00       	nop
 ecc:	00 00       	nop
 ece:	00 00       	nop
 ed0:	66 02       	muls	r22, r22
 ed2:	00 00       	nop
 ed4:	80 00       	.word	0x0080	; ????
 ed6:	00 00       	nop
 ed8:	00 00       	nop
 eda:	00 00       	nop
 edc:	8f 02       	muls	r24, r31
 ede:	00 00       	nop
 ee0:	80 00       	.word	0x0080	; ????
 ee2:	00 00       	nop
 ee4:	00 00       	nop
 ee6:	00 00       	nop
 ee8:	a9 02       	muls	r26, r25
 eea:	00 00       	nop
 eec:	80 00       	.word	0x0080	; ????
 eee:	00 00       	nop
 ef0:	00 00       	nop
 ef2:	00 00       	nop
 ef4:	c4 02       	muls	r28, r20
 ef6:	00 00       	nop
 ef8:	80 00       	.word	0x0080	; ????
 efa:	00 00       	nop
 efc:	00 00       	nop
 efe:	00 00       	nop
 f00:	e4 02       	muls	r30, r20
 f02:	00 00       	nop
 f04:	80 00       	.word	0x0080	; ????
 f06:	00 00       	nop
 f08:	00 00       	nop
 f0a:	00 00       	nop
 f0c:	5c 09       	sbc	r21, r12
 f0e:	00 00       	nop
 f10:	24 00       	.word	0x0024	; ????
 f12:	05 00       	.word	0x0005	; ????
 f14:	78 01       	movw	r14, r16
 f16:	00 00       	nop
 f18:	00 00       	nop
 f1a:	00 00       	nop
 f1c:	2e 00       	.word	0x002e	; ????
 f1e:	00 00       	nop
 f20:	78 01       	movw	r14, r16
 f22:	00 00       	nop
 f24:	00 00       	nop
 f26:	00 00       	nop
 f28:	44 00       	.word	0x0044	; ????
 f2a:	05 00       	.word	0x0005	; ????
	...
 f34:	44 00       	.word	0x0044	; ????
 f36:	07 00       	.word	0x0007	; ????
 f38:	02 00       	.word	0x0002	; ????
 f3a:	00 00       	nop
 f3c:	00 00       	nop
 f3e:	00 00       	nop
 f40:	44 00       	.word	0x0044	; ????
 f42:	08 00       	.word	0x0008	; ????
 f44:	08 00       	.word	0x0008	; ????
 f46:	00 00       	nop
 f48:	00 00       	nop
 f4a:	00 00       	nop
 f4c:	44 00       	.word	0x0044	; ????
 f4e:	09 00       	.word	0x0009	; ????
 f50:	0e 00       	.word	0x000e	; ????
 f52:	00 00       	nop
 f54:	00 00       	nop
 f56:	00 00       	nop
 f58:	44 00       	.word	0x0044	; ????
 f5a:	0a 00       	.word	0x000a	; ????
 f5c:	14 00       	.word	0x0014	; ????
 f5e:	00 00       	nop
 f60:	00 00       	nop
 f62:	00 00       	nop
 f64:	44 00       	.word	0x0044	; ????
 f66:	0b 00       	.word	0x000b	; ????
 f68:	1a 00       	.word	0x001a	; ????
 f6a:	00 00       	nop
 f6c:	00 00       	nop
 f6e:	00 00       	nop
 f70:	44 00       	.word	0x0044	; ????
 f72:	0c 00       	.word	0x000c	; ????
 f74:	20 00       	.word	0x0020	; ????
 f76:	00 00       	nop
 f78:	00 00       	nop
 f7a:	00 00       	nop
 f7c:	44 00       	.word	0x0044	; ????
 f7e:	0d 00       	.word	0x000d	; ????
 f80:	26 00       	.word	0x0026	; ????
 f82:	00 00       	nop
 f84:	00 00       	nop
 f86:	00 00       	nop
 f88:	44 00       	.word	0x0044	; ????
 f8a:	0f 00       	.word	0x000f	; ????
 f8c:	2c 00       	.word	0x002c	; ????
 f8e:	00 00       	nop
 f90:	00 00       	nop
 f92:	00 00       	nop
 f94:	44 00       	.word	0x0044	; ????
 f96:	10 00       	.word	0x0010	; ????
 f98:	32 00       	.word	0x0032	; ????
 f9a:	00 00       	nop
 f9c:	00 00       	nop
 f9e:	00 00       	nop
 fa0:	44 00       	.word	0x0044	; ????
 fa2:	0e 00       	.word	0x000e	; ????
 fa4:	36 00       	.word	0x0036	; ????
 fa6:	00 00       	nop
 fa8:	00 00       	nop
 faa:	00 00       	nop
 fac:	44 00       	.word	0x0044	; ????
 fae:	13 00       	.word	0x0013	; ????
 fb0:	3a 00       	.word	0x003a	; ????
 fb2:	00 00       	nop
 fb4:	00 00       	nop
 fb6:	00 00       	nop
 fb8:	24 00       	.word	0x0024	; ????
 fba:	00 00       	nop
 fbc:	42 00       	.word	0x0042	; ????
 fbe:	00 00       	nop
 fc0:	00 00       	nop
 fc2:	00 00       	nop
 fc4:	4e 00       	.word	0x004e	; ????
 fc6:	00 00       	nop
 fc8:	ba 01       	movw	r22, r20
 fca:	00 00       	nop
 fcc:	00 00       	nop
 fce:	00 00       	nop
 fd0:	64 00       	.word	0x0064	; ????
 fd2:	00 00       	nop
 fd4:	78 01       	movw	r14, r16
	...

Disassembly of section .stabstr:

00000000 <.stabstr>:
   0:	00 2f       	mov	r16, r16
   2:	74 6d       	ori	r23, 0xD4	; 212
   4:	70 2f       	mov	r23, r16
   6:	63 63       	ori	r22, 0x33	; 51
   8:	4e 53       	subi	r20, 0x3E	; 62
   a:	75 46       	sbci	r23, 0x65	; 101
   c:	5a 45       	sbci	r21, 0x5A	; 90
   e:	2e 73       	andi	r18, 0x3E	; 62
  10:	00 76       	andi	r16, 0x60	; 96
  12:	6f 69       	ori	r22, 0x9F	; 159
  14:	64 3a       	cpi	r22, 0xA4	; 164
  16:	74 31       	cpi	r23, 0x14	; 20
  18:	3d 31       	cpi	r19, 0x1D	; 29
  1a:	00 5f       	subi	r16, 0xF0	; 240
  1c:	5f 76       	andi	r21, 0x6F	; 111
  1e:	65 63       	ori	r22, 0x35	; 53
  20:	74 6f       	ori	r23, 0xF4	; 244
  22:	72 73       	andi	r23, 0x32	; 50
  24:	3a 46       	sbci	r19, 0x6A	; 106
  26:	31 00       	.word	0x0031	; ????
  28:	2e 2e       	mov	r2, r30
  2a:	2f 2e       	mov	r2, r31
  2c:	2e 2f       	mov	r18, r30
  2e:	2e 2e       	mov	r2, r30
  30:	2f 2e       	mov	r2, r31
  32:	2e 2f       	mov	r18, r30
  34:	63 72       	andi	r22, 0x23	; 35
  36:	74 31       	cpi	r23, 0x14	; 20
  38:	2f 67       	ori	r18, 0x7F	; 127
  3a:	63 72       	andi	r22, 0x23	; 35
  3c:	74 31       	cpi	r23, 0x14	; 20
  3e:	2e 53       	subi	r18, 0x3E	; 62
  40:	00 5f       	subi	r16, 0xF0	; 240
  42:	5f 62       	ori	r21, 0x2F	; 47
  44:	61 64       	ori	r22, 0x41	; 65
  46:	5f 69       	ori	r21, 0x9F	; 159
  48:	6e 74       	andi	r22, 0x4E	; 78
  4a:	65 72       	andi	r22, 0x25	; 37
  4c:	72 75       	andi	r23, 0x52	; 82
  4e:	70 74       	andi	r23, 0x40	; 64
  50:	3a 46       	sbci	r19, 0x6A	; 106
  52:	31 00       	.word	0x0031	; ????
  54:	2f 6d       	ori	r18, 0xDF	; 223
  56:	6e 74       	andi	r22, 0x4E	; 78
  58:	2f 68       	ori	r18, 0x8F	; 143
  5a:	67 66       	ori	r22, 0x67	; 103
  5c:	73 2f       	mov	r23, r19
  5e:	53 44       	sbci	r21, 0x43	; 67
  60:	52 2f       	mov	r21, r18
  62:	74 65       	ori	r23, 0x54	; 84
  64:	73 74       	andi	r23, 0x43	; 67
  66:	73 2f       	mov	r23, r19
  68:	74 65       	ori	r23, 0x54	; 84
  6a:	73 74       	andi	r23, 0x43	; 67
  6c:	5f 72       	andi	r21, 0x2F	; 47
  6e:	65 61       	ori	r22, 0x15	; 21
  70:	64 2f       	mov	r22, r20
  72:	00 61       	ori	r16, 0x10	; 16
  74:	76 72       	andi	r23, 0x26	; 38
  76:	2e 63       	ori	r18, 0x3E	; 62
  78:	00 67       	ori	r16, 0x70	; 112
  7a:	63 63       	ori	r22, 0x33	; 51
  7c:	32 5f       	subi	r19, 0xF2	; 242
  7e:	63 6f       	ori	r22, 0xF3	; 243
  80:	6d 70       	andi	r22, 0x0D	; 13
  82:	69 6c       	ori	r22, 0xC9	; 201
  84:	65 64       	ori	r22, 0x45	; 69
  86:	2e 00       	.word	0x002e	; ????
  88:	69 6e       	ori	r22, 0xE9	; 233
  8a:	74 3a       	cpi	r23, 0xA4	; 164
  8c:	74 28       	or	r7, r4
  8e:	30 2c       	mov	r3, r0
  90:	31 29       	or	r19, r1
  92:	3d 72       	andi	r19, 0x2D	; 45
  94:	28 30       	cpi	r18, 0x08	; 8
  96:	2c 31       	cpi	r18, 0x1C	; 28
  98:	29 3b       	cpi	r18, 0xB9	; 185
  9a:	2d 33       	cpi	r18, 0x3D	; 61
  9c:	32 37       	cpi	r19, 0x72	; 114
  9e:	36 38       	cpi	r19, 0x86	; 134
  a0:	3b 33       	cpi	r19, 0x3B	; 59
  a2:	32 37       	cpi	r19, 0x72	; 114
  a4:	36 37       	cpi	r19, 0x76	; 118
  a6:	3b 00       	.word	0x003b	; ????
  a8:	63 68       	ori	r22, 0x83	; 131
  aa:	61 72       	andi	r22, 0x21	; 33
  ac:	3a 74       	andi	r19, 0x4A	; 74
  ae:	28 30       	cpi	r18, 0x08	; 8
  b0:	2c 32       	cpi	r18, 0x2C	; 44
  b2:	29 3d       	cpi	r18, 0xD9	; 217
  b4:	72 28       	or	r7, r2
  b6:	30 2c       	mov	r3, r0
  b8:	32 29       	or	r19, r2
  ba:	3b 30       	cpi	r19, 0x0B	; 11
  bc:	3b 31       	cpi	r19, 0x1B	; 27
  be:	32 37       	cpi	r19, 0x72	; 114
  c0:	3b 00       	.word	0x003b	; ????
  c2:	6c 6f       	ori	r22, 0xFC	; 252
  c4:	6e 67       	ori	r22, 0x7E	; 126
  c6:	20 69       	ori	r18, 0x90	; 144
  c8:	6e 74       	andi	r22, 0x4E	; 78
  ca:	3a 74       	andi	r19, 0x4A	; 74
  cc:	28 30       	cpi	r18, 0x08	; 8
  ce:	2c 33       	cpi	r18, 0x3C	; 60
  d0:	29 3d       	cpi	r18, 0xD9	; 217
  d2:	40 73       	andi	r20, 0x30	; 48
  d4:	33 32       	cpi	r19, 0x23	; 35
  d6:	3b 72       	andi	r19, 0x2B	; 43
  d8:	28 30       	cpi	r18, 0x08	; 8
  da:	2c 33       	cpi	r18, 0x3C	; 60
  dc:	29 3b       	cpi	r18, 0xB9	; 185
  de:	30 32       	cpi	r19, 0x20	; 32
  e0:	30 30       	cpi	r19, 0x00	; 0
  e2:	30 30       	cpi	r19, 0x00	; 0
  e4:	30 30       	cpi	r19, 0x00	; 0
  e6:	30 30       	cpi	r19, 0x00	; 0
  e8:	30 30       	cpi	r19, 0x00	; 0
  ea:	3b 30       	cpi	r19, 0x0B	; 11
  ec:	31 37       	cpi	r19, 0x71	; 113
  ee:	37 37       	cpi	r19, 0x77	; 119
  f0:	37 37       	cpi	r19, 0x77	; 119
  f2:	37 37       	cpi	r19, 0x77	; 119
  f4:	37 37       	cpi	r19, 0x77	; 119
  f6:	37 3b       	cpi	r19, 0xB7	; 183
  f8:	00 75       	andi	r16, 0x50	; 80
  fa:	6e 73       	andi	r22, 0x3E	; 62
  fc:	69 67       	ori	r22, 0x79	; 121
  fe:	6e 65       	ori	r22, 0x5E	; 94
 100:	64 20       	and	r6, r4
 102:	69 6e       	ori	r22, 0xE9	; 233
 104:	74 3a       	cpi	r23, 0xA4	; 164
 106:	74 28       	or	r7, r4
 108:	30 2c       	mov	r3, r0
 10a:	34 29       	or	r19, r4
 10c:	3d 72       	andi	r19, 0x2D	; 45
 10e:	28 30       	cpi	r18, 0x08	; 8
 110:	2c 34       	cpi	r18, 0x4C	; 76
 112:	29 3b       	cpi	r18, 0xB9	; 185
 114:	30 3b       	cpi	r19, 0xB0	; 176
 116:	30 31       	cpi	r19, 0x10	; 16
 118:	37 37       	cpi	r19, 0x77	; 119
 11a:	37 37       	cpi	r19, 0x77	; 119
 11c:	37 3b       	cpi	r19, 0xB7	; 183
 11e:	00 6c       	ori	r16, 0xC0	; 192
 120:	6f 6e       	ori	r22, 0xEF	; 239
 122:	67 20       	and	r6, r7
 124:	75 6e       	ori	r23, 0xE5	; 229
 126:	73 69       	ori	r23, 0x93	; 147
 128:	67 6e       	ori	r22, 0xE7	; 231
 12a:	65 64       	ori	r22, 0x45	; 69
 12c:	20 69       	ori	r18, 0x90	; 144
 12e:	6e 74       	andi	r22, 0x4E	; 78
 130:	3a 74       	andi	r19, 0x4A	; 74
 132:	28 30       	cpi	r18, 0x08	; 8
 134:	2c 35       	cpi	r18, 0x5C	; 92
 136:	29 3d       	cpi	r18, 0xD9	; 217
 138:	40 73       	andi	r20, 0x30	; 48
 13a:	33 32       	cpi	r19, 0x23	; 35
 13c:	3b 72       	andi	r19, 0x2B	; 43
 13e:	28 30       	cpi	r18, 0x08	; 8
 140:	2c 35       	cpi	r18, 0x5C	; 92
 142:	29 3b       	cpi	r18, 0xB9	; 185
 144:	30 3b       	cpi	r19, 0xB0	; 176
 146:	30 33       	cpi	r19, 0x30	; 48
 148:	37 37       	cpi	r19, 0x77	; 119
 14a:	37 37       	cpi	r19, 0x77	; 119
 14c:	37 37       	cpi	r19, 0x77	; 119
 14e:	37 37       	cpi	r19, 0x77	; 119
 150:	37 37       	cpi	r19, 0x77	; 119
 152:	3b 00       	.word	0x003b	; ????
 154:	6c 6f       	ori	r22, 0xFC	; 252
 156:	6e 67       	ori	r22, 0x7E	; 126
 158:	20 6c       	ori	r18, 0xC0	; 192
 15a:	6f 6e       	ori	r22, 0xEF	; 239
 15c:	67 20       	and	r6, r7
 15e:	69 6e       	ori	r22, 0xE9	; 233
 160:	74 3a       	cpi	r23, 0xA4	; 164
 162:	74 28       	or	r7, r4
 164:	30 2c       	mov	r3, r0
 166:	36 29       	or	r19, r6
 168:	3d 40       	sbci	r19, 0x0D	; 13
 16a:	73 36       	cpi	r23, 0x63	; 99
 16c:	34 3b       	cpi	r19, 0xB4	; 180
 16e:	72 28       	or	r7, r2
 170:	30 2c       	mov	r3, r0
 172:	36 29       	or	r19, r6
 174:	3b 30       	cpi	r19, 0x0B	; 11
 176:	31 30       	cpi	r19, 0x01	; 1
 178:	30 30       	cpi	r19, 0x00	; 0
 17a:	30 30       	cpi	r19, 0x00	; 0
 17c:	30 30       	cpi	r19, 0x00	; 0
 17e:	30 30       	cpi	r19, 0x00	; 0
 180:	30 30       	cpi	r19, 0x00	; 0
 182:	30 30       	cpi	r19, 0x00	; 0
 184:	30 30       	cpi	r19, 0x00	; 0
 186:	30 30       	cpi	r19, 0x00	; 0
 188:	30 30       	cpi	r19, 0x00	; 0
 18a:	30 30       	cpi	r19, 0x00	; 0
 18c:	3b 30       	cpi	r19, 0x0B	; 11
 18e:	37 37       	cpi	r19, 0x77	; 119
 190:	37 37       	cpi	r19, 0x77	; 119
 192:	37 37       	cpi	r19, 0x77	; 119
 194:	37 37       	cpi	r19, 0x77	; 119
 196:	37 37       	cpi	r19, 0x77	; 119
 198:	37 37       	cpi	r19, 0x77	; 119
 19a:	37 37       	cpi	r19, 0x77	; 119
 19c:	37 37       	cpi	r19, 0x77	; 119
 19e:	37 37       	cpi	r19, 0x77	; 119
 1a0:	37 37       	cpi	r19, 0x77	; 119
 1a2:	37 3b       	cpi	r19, 0xB7	; 183
 1a4:	00 6c       	ori	r16, 0xC0	; 192
 1a6:	6f 6e       	ori	r22, 0xEF	; 239
 1a8:	67 20       	and	r6, r7
 1aa:	6c 6f       	ori	r22, 0xFC	; 252
 1ac:	6e 67       	ori	r22, 0x7E	; 126
 1ae:	20 75       	andi	r18, 0x50	; 80
 1b0:	6e 73       	andi	r22, 0x3E	; 62
 1b2:	69 67       	ori	r22, 0x79	; 121
 1b4:	6e 65       	ori	r22, 0x5E	; 94
 1b6:	64 20       	and	r6, r4
 1b8:	69 6e       	ori	r22, 0xE9	; 233
 1ba:	74 3a       	cpi	r23, 0xA4	; 164
 1bc:	74 28       	or	r7, r4
 1be:	30 2c       	mov	r3, r0
 1c0:	37 29       	or	r19, r7
 1c2:	3d 40       	sbci	r19, 0x0D	; 13
 1c4:	73 36       	cpi	r23, 0x63	; 99
 1c6:	34 3b       	cpi	r19, 0xB4	; 180
 1c8:	72 28       	or	r7, r2
 1ca:	30 2c       	mov	r3, r0
 1cc:	37 29       	or	r19, r7
 1ce:	3b 30       	cpi	r19, 0x0B	; 11
 1d0:	3b 30       	cpi	r19, 0x0B	; 11
 1d2:	31 37       	cpi	r19, 0x71	; 113
 1d4:	37 37       	cpi	r19, 0x77	; 119
 1d6:	37 37       	cpi	r19, 0x77	; 119
 1d8:	37 37       	cpi	r19, 0x77	; 119
 1da:	37 37       	cpi	r19, 0x77	; 119
 1dc:	37 37       	cpi	r19, 0x77	; 119
 1de:	37 37       	cpi	r19, 0x77	; 119
 1e0:	37 37       	cpi	r19, 0x77	; 119
 1e2:	37 37       	cpi	r19, 0x77	; 119
 1e4:	37 37       	cpi	r19, 0x77	; 119
 1e6:	37 37       	cpi	r19, 0x77	; 119
 1e8:	3b 00       	.word	0x003b	; ????
 1ea:	73 68       	ori	r23, 0x83	; 131
 1ec:	6f 72       	andi	r22, 0x2F	; 47
 1ee:	74 20       	and	r7, r4
 1f0:	69 6e       	ori	r22, 0xE9	; 233
 1f2:	74 3a       	cpi	r23, 0xA4	; 164
 1f4:	74 28       	or	r7, r4
 1f6:	30 2c       	mov	r3, r0
 1f8:	38 29       	or	r19, r8
 1fa:	3d 72       	andi	r19, 0x2D	; 45
 1fc:	28 30       	cpi	r18, 0x08	; 8
 1fe:	2c 38       	cpi	r18, 0x8C	; 140
 200:	29 3b       	cpi	r18, 0xB9	; 185
 202:	2d 33       	cpi	r18, 0x3D	; 61
 204:	32 37       	cpi	r19, 0x72	; 114
 206:	36 38       	cpi	r19, 0x86	; 134
 208:	3b 33       	cpi	r19, 0x3B	; 59
 20a:	32 37       	cpi	r19, 0x72	; 114
 20c:	36 37       	cpi	r19, 0x76	; 118
 20e:	3b 00       	.word	0x003b	; ????
 210:	73 68       	ori	r23, 0x83	; 131
 212:	6f 72       	andi	r22, 0x2F	; 47
 214:	74 20       	and	r7, r4
 216:	75 6e       	ori	r23, 0xE5	; 229
 218:	73 69       	ori	r23, 0x93	; 147
 21a:	67 6e       	ori	r22, 0xE7	; 231
 21c:	65 64       	ori	r22, 0x45	; 69
 21e:	20 69       	ori	r18, 0x90	; 144
 220:	6e 74       	andi	r22, 0x4E	; 78
 222:	3a 74       	andi	r19, 0x4A	; 74
 224:	28 30       	cpi	r18, 0x08	; 8
 226:	2c 39       	cpi	r18, 0x9C	; 156
 228:	29 3d       	cpi	r18, 0xD9	; 217
 22a:	72 28       	or	r7, r2
 22c:	30 2c       	mov	r3, r0
 22e:	39 29       	or	r19, r9
 230:	3b 30       	cpi	r19, 0x0B	; 11
 232:	3b 30       	cpi	r19, 0x0B	; 11
 234:	31 37       	cpi	r19, 0x71	; 113
 236:	37 37       	cpi	r19, 0x77	; 119
 238:	37 37       	cpi	r19, 0x77	; 119
 23a:	3b 00       	.word	0x003b	; ????
 23c:	73 69       	ori	r23, 0x93	; 147
 23e:	67 6e       	ori	r22, 0xE7	; 231
 240:	65 64       	ori	r22, 0x45	; 69
 242:	20 63       	ori	r18, 0x30	; 48
 244:	68 61       	ori	r22, 0x18	; 24
 246:	72 3a       	cpi	r23, 0xA2	; 162
 248:	74 28       	or	r7, r4
 24a:	30 2c       	mov	r3, r0
 24c:	31 30       	cpi	r19, 0x01	; 1
 24e:	29 3d       	cpi	r18, 0xD9	; 217
 250:	40 73       	andi	r20, 0x30	; 48
 252:	38 3b       	cpi	r19, 0xB8	; 184
 254:	72 28       	or	r7, r2
 256:	30 2c       	mov	r3, r0
 258:	31 30       	cpi	r19, 0x01	; 1
 25a:	29 3b       	cpi	r18, 0xB9	; 185
 25c:	2d 31       	cpi	r18, 0x1D	; 29
 25e:	32 38       	cpi	r19, 0x82	; 130
 260:	3b 31       	cpi	r19, 0x1B	; 27
 262:	32 37       	cpi	r19, 0x72	; 114
 264:	3b 00       	.word	0x003b	; ????
 266:	75 6e       	ori	r23, 0xE5	; 229
 268:	73 69       	ori	r23, 0x93	; 147
 26a:	67 6e       	ori	r22, 0xE7	; 231
 26c:	65 64       	ori	r22, 0x45	; 69
 26e:	20 63       	ori	r18, 0x30	; 48
 270:	68 61       	ori	r22, 0x18	; 24
 272:	72 3a       	cpi	r23, 0xA2	; 162
 274:	74 28       	or	r7, r4
 276:	30 2c       	mov	r3, r0
 278:	31 31       	cpi	r19, 0x11	; 17
 27a:	29 3d       	cpi	r18, 0xD9	; 217
 27c:	40 73       	andi	r20, 0x30	; 48
 27e:	38 3b       	cpi	r19, 0xB8	; 184
 280:	72 28       	or	r7, r2
 282:	30 2c       	mov	r3, r0
 284:	31 31       	cpi	r19, 0x11	; 17
 286:	29 3b       	cpi	r18, 0xB9	; 185
 288:	30 3b       	cpi	r19, 0xB0	; 176
 28a:	32 35       	cpi	r19, 0x52	; 82
 28c:	35 3b       	cpi	r19, 0xB5	; 181
 28e:	00 66       	ori	r16, 0x60	; 96
 290:	6c 6f       	ori	r22, 0xFC	; 252
 292:	61 74       	andi	r22, 0x41	; 65
 294:	3a 74       	andi	r19, 0x4A	; 74
 296:	28 30       	cpi	r18, 0x08	; 8
 298:	2c 31       	cpi	r18, 0x1C	; 28
 29a:	32 29       	or	r19, r2
 29c:	3d 72       	andi	r19, 0x2D	; 45
 29e:	28 30       	cpi	r18, 0x08	; 8
 2a0:	2c 31       	cpi	r18, 0x1C	; 28
 2a2:	29 3b       	cpi	r18, 0xB9	; 185
 2a4:	34 3b       	cpi	r19, 0xB4	; 180
 2a6:	30 3b       	cpi	r19, 0xB0	; 176
 2a8:	00 64       	ori	r16, 0x40	; 64
 2aa:	6f 75       	andi	r22, 0x5F	; 95
 2ac:	62 6c       	ori	r22, 0xC2	; 194
 2ae:	65 3a       	cpi	r22, 0xA5	; 165
 2b0:	74 28       	or	r7, r4
 2b2:	30 2c       	mov	r3, r0
 2b4:	31 33       	cpi	r19, 0x31	; 49
 2b6:	29 3d       	cpi	r18, 0xD9	; 217
 2b8:	72 28       	or	r7, r2
 2ba:	30 2c       	mov	r3, r0
 2bc:	31 29       	or	r19, r1
 2be:	3b 34       	cpi	r19, 0x4B	; 75
 2c0:	3b 30       	cpi	r19, 0x0B	; 11
 2c2:	3b 00       	.word	0x003b	; ????
 2c4:	6c 6f       	ori	r22, 0xFC	; 252
 2c6:	6e 67       	ori	r22, 0x7E	; 126
 2c8:	20 64       	ori	r18, 0x40	; 64
 2ca:	6f 75       	andi	r22, 0x5F	; 95
 2cc:	62 6c       	ori	r22, 0xC2	; 194
 2ce:	65 3a       	cpi	r22, 0xA5	; 165
 2d0:	74 28       	or	r7, r4
 2d2:	30 2c       	mov	r3, r0
 2d4:	31 34       	cpi	r19, 0x41	; 65
 2d6:	29 3d       	cpi	r18, 0xD9	; 217
 2d8:	72 28       	or	r7, r2
 2da:	30 2c       	mov	r3, r0
 2dc:	31 29       	or	r19, r1
 2de:	3b 34       	cpi	r19, 0x4B	; 75
 2e0:	3b 30       	cpi	r19, 0x0B	; 11
 2e2:	3b 00       	.word	0x003b	; ????
 2e4:	76 6f       	ori	r23, 0xF6	; 246
 2e6:	69 64       	ori	r22, 0x49	; 73
 2e8:	3a 74       	andi	r19, 0x4A	; 74
 2ea:	28 30       	cpi	r18, 0x08	; 8
 2ec:	2c 31       	cpi	r18, 0x1C	; 28
 2ee:	35 29       	or	r19, r5
 2f0:	3d 28       	or	r3, r13
 2f2:	30 2c       	mov	r3, r0
 2f4:	31 35       	cpi	r19, 0x51	; 81
 2f6:	29 00       	.word	0x0029	; ????
 2f8:	61 76       	andi	r22, 0x61	; 97
 2fa:	72 5f       	subi	r23, 0xF2	; 242
 2fc:	65 6e       	ori	r22, 0xE5	; 229
 2fe:	64 3a       	cpi	r22, 0xA4	; 164
 300:	46 28       	or	r4, r6
 302:	30 2c       	mov	r3, r0
 304:	31 35       	cpi	r19, 0x51	; 81
 306:	29 00       	.word	0x0029	; ????
 308:	70 72       	andi	r23, 0x20	; 32
 30a:	69 6e       	ori	r22, 0xE9	; 233
 30c:	74 2e       	mov	r7, r20
 30e:	63 00       	.word	0x0063	; ????
 310:	2f 75       	andi	r18, 0x5F	; 95
 312:	73 72       	andi	r23, 0x23	; 35
 314:	2f 6c       	ori	r18, 0xCF	; 207
 316:	69 62       	ori	r22, 0x29	; 41
 318:	2f 67       	ori	r18, 0x7F	; 127
 31a:	63 63       	ori	r22, 0x33	; 51
 31c:	2f 61       	ori	r18, 0x1F	; 31
 31e:	76 72       	andi	r23, 0x26	; 38
 320:	2f 34       	cpi	r18, 0x4F	; 79
 322:	2e 37       	cpi	r18, 0x7E	; 126
 324:	2e 32       	cpi	r18, 0x2E	; 46
 326:	2f 2e       	mov	r2, r31
 328:	2e 2f       	mov	r18, r30
 32a:	2e 2e       	mov	r2, r30
 32c:	2f 2e       	mov	r2, r31
 32e:	2e 2f       	mov	r18, r30
 330:	61 76       	andi	r22, 0x61	; 97
 332:	72 2f       	mov	r23, r18
 334:	69 6e       	ori	r22, 0xE9	; 233
 336:	63 6c       	ori	r22, 0xC3	; 195
 338:	75 64       	ori	r23, 0x45	; 69
 33a:	65 2f       	mov	r22, r21
 33c:	73 74       	andi	r23, 0x43	; 67
 33e:	64 69       	ori	r22, 0x94	; 148
 340:	6f 2e       	mov	r6, r31
 342:	68 00       	.word	0x0068	; ????
 344:	2f 75       	andi	r18, 0x5F	; 95
 346:	73 72       	andi	r23, 0x23	; 35
 348:	2f 6c       	ori	r18, 0xCF	; 207
 34a:	69 62       	ori	r22, 0x29	; 41
 34c:	2f 67       	ori	r18, 0x7F	; 127
 34e:	63 63       	ori	r22, 0x33	; 51
 350:	2f 61       	ori	r18, 0x1F	; 31
 352:	76 72       	andi	r23, 0x26	; 38
 354:	2f 34       	cpi	r18, 0x4F	; 79
 356:	2e 37       	cpi	r18, 0x7E	; 126
 358:	2e 32       	cpi	r18, 0x2E	; 46
 35a:	2f 2e       	mov	r2, r31
 35c:	2e 2f       	mov	r18, r30
 35e:	2e 2e       	mov	r2, r30
 360:	2f 2e       	mov	r2, r31
 362:	2e 2f       	mov	r18, r30
 364:	61 76       	andi	r22, 0x61	; 97
 366:	72 2f       	mov	r23, r18
 368:	69 6e       	ori	r22, 0xE9	; 233
 36a:	63 6c       	ori	r22, 0xC3	; 195
 36c:	75 64       	ori	r23, 0x45	; 69
 36e:	65 2f       	mov	r22, r21
 370:	69 6e       	ori	r22, 0xE9	; 233
 372:	74 74       	andi	r23, 0x44	; 68
 374:	79 70       	andi	r23, 0x09	; 9
 376:	65 73       	andi	r22, 0x35	; 53
 378:	2e 68       	ori	r18, 0x8E	; 142
 37a:	00 2f       	mov	r16, r16
 37c:	75 73       	andi	r23, 0x35	; 53
 37e:	72 2f       	mov	r23, r18
 380:	6c 69       	ori	r22, 0x9C	; 156
 382:	62 2f       	mov	r22, r18
 384:	67 63       	ori	r22, 0x37	; 55
 386:	63 2f       	mov	r22, r19
 388:	61 76       	andi	r22, 0x61	; 97
 38a:	72 2f       	mov	r23, r18
 38c:	34 2e       	mov	r3, r20
 38e:	37 2e       	mov	r3, r23
 390:	32 2f       	mov	r19, r18
 392:	69 6e       	ori	r22, 0xE9	; 233
 394:	63 6c       	ori	r22, 0xC3	; 195
 396:	75 64       	ori	r23, 0x45	; 69
 398:	65 2f       	mov	r22, r21
 39a:	73 74       	andi	r23, 0x43	; 67
 39c:	64 69       	ori	r22, 0x94	; 148
 39e:	6e 74       	andi	r22, 0x4E	; 78
 3a0:	2e 68       	ori	r18, 0x8E	; 142
 3a2:	00 2f       	mov	r16, r16
 3a4:	75 73       	andi	r23, 0x35	; 53
 3a6:	72 2f       	mov	r23, r18
 3a8:	6c 69       	ori	r22, 0x9C	; 156
 3aa:	62 2f       	mov	r22, r18
 3ac:	67 63       	ori	r22, 0x37	; 55
 3ae:	63 2f       	mov	r22, r19
 3b0:	61 76       	andi	r22, 0x61	; 97
 3b2:	72 2f       	mov	r23, r18
 3b4:	34 2e       	mov	r3, r20
 3b6:	37 2e       	mov	r3, r23
 3b8:	32 2f       	mov	r19, r18
 3ba:	2e 2e       	mov	r2, r30
 3bc:	2f 2e       	mov	r2, r31
 3be:	2e 2f       	mov	r18, r30
 3c0:	2e 2e       	mov	r2, r30
 3c2:	2f 61       	ori	r18, 0x1F	; 31
 3c4:	76 72       	andi	r23, 0x26	; 38
 3c6:	2f 69       	ori	r18, 0x9F	; 159
 3c8:	6e 63       	ori	r22, 0x3E	; 62
 3ca:	6c 75       	andi	r22, 0x5C	; 92
 3cc:	64 65       	ori	r22, 0x54	; 84
 3ce:	2f 73       	andi	r18, 0x3F	; 63
 3d0:	74 64       	ori	r23, 0x44	; 68
 3d2:	69 6e       	ori	r22, 0xE9	; 233
 3d4:	74 2e       	mov	r7, r20
 3d6:	68 00       	.word	0x0068	; ????
 3d8:	69 6e       	ori	r22, 0xE9	; 233
 3da:	74 38       	cpi	r23, 0x84	; 132
 3dc:	5f 74       	andi	r21, 0x4F	; 79
 3de:	3a 74       	andi	r19, 0x4A	; 74
 3e0:	28 34       	cpi	r18, 0x48	; 72
 3e2:	2c 31       	cpi	r18, 0x1C	; 28
 3e4:	29 3d       	cpi	r18, 0xD9	; 217
 3e6:	28 30       	cpi	r18, 0x08	; 8
 3e8:	2c 31       	cpi	r18, 0x1C	; 28
 3ea:	30 29       	or	r19, r0
 3ec:	00 75       	andi	r16, 0x50	; 80
 3ee:	69 6e       	ori	r22, 0xE9	; 233
 3f0:	74 38       	cpi	r23, 0x84	; 132
 3f2:	5f 74       	andi	r21, 0x4F	; 79
 3f4:	3a 74       	andi	r19, 0x4A	; 74
 3f6:	28 34       	cpi	r18, 0x48	; 72
 3f8:	2c 32       	cpi	r18, 0x2C	; 44
 3fa:	29 3d       	cpi	r18, 0xD9	; 217
 3fc:	28 30       	cpi	r18, 0x08	; 8
 3fe:	2c 31       	cpi	r18, 0x1C	; 28
 400:	31 29       	or	r19, r1
 402:	00 69       	ori	r16, 0x90	; 144
 404:	6e 74       	andi	r22, 0x4E	; 78
 406:	31 36       	cpi	r19, 0x61	; 97
 408:	5f 74       	andi	r21, 0x4F	; 79
 40a:	3a 74       	andi	r19, 0x4A	; 74
 40c:	28 34       	cpi	r18, 0x48	; 72
 40e:	2c 33       	cpi	r18, 0x3C	; 60
 410:	29 3d       	cpi	r18, 0xD9	; 217
 412:	28 30       	cpi	r18, 0x08	; 8
 414:	2c 31       	cpi	r18, 0x1C	; 28
 416:	29 00       	.word	0x0029	; ????
 418:	75 69       	ori	r23, 0x95	; 149
 41a:	6e 74       	andi	r22, 0x4E	; 78
 41c:	31 36       	cpi	r19, 0x61	; 97
 41e:	5f 74       	andi	r21, 0x4F	; 79
 420:	3a 74       	andi	r19, 0x4A	; 74
 422:	28 34       	cpi	r18, 0x48	; 72
 424:	2c 34       	cpi	r18, 0x4C	; 76
 426:	29 3d       	cpi	r18, 0xD9	; 217
 428:	28 30       	cpi	r18, 0x08	; 8
 42a:	2c 34       	cpi	r18, 0x4C	; 76
 42c:	29 00       	.word	0x0029	; ????
 42e:	69 6e       	ori	r22, 0xE9	; 233
 430:	74 33       	cpi	r23, 0x34	; 52
 432:	32 5f       	subi	r19, 0xF2	; 242
 434:	74 3a       	cpi	r23, 0xA4	; 164
 436:	74 28       	or	r7, r4
 438:	34 2c       	mov	r3, r4
 43a:	35 29       	or	r19, r5
 43c:	3d 28       	or	r3, r13
 43e:	30 2c       	mov	r3, r0
 440:	33 29       	or	r19, r3
 442:	00 75       	andi	r16, 0x50	; 80
 444:	69 6e       	ori	r22, 0xE9	; 233
 446:	74 33       	cpi	r23, 0x34	; 52
 448:	32 5f       	subi	r19, 0xF2	; 242
 44a:	74 3a       	cpi	r23, 0xA4	; 164
 44c:	74 28       	or	r7, r4
 44e:	34 2c       	mov	r3, r4
 450:	36 29       	or	r19, r6
 452:	3d 28       	or	r3, r13
 454:	30 2c       	mov	r3, r0
 456:	35 29       	or	r19, r5
 458:	00 69       	ori	r16, 0x90	; 144
 45a:	6e 74       	andi	r22, 0x4E	; 78
 45c:	36 34       	cpi	r19, 0x46	; 70
 45e:	5f 74       	andi	r21, 0x4F	; 79
 460:	3a 74       	andi	r19, 0x4A	; 74
 462:	28 34       	cpi	r18, 0x48	; 72
 464:	2c 37       	cpi	r18, 0x7C	; 124
 466:	29 3d       	cpi	r18, 0xD9	; 217
 468:	28 30       	cpi	r18, 0x08	; 8
 46a:	2c 36       	cpi	r18, 0x6C	; 108
 46c:	29 00       	.word	0x0029	; ????
 46e:	75 69       	ori	r23, 0x95	; 149
 470:	6e 74       	andi	r22, 0x4E	; 78
 472:	36 34       	cpi	r19, 0x46	; 70
 474:	5f 74       	andi	r21, 0x4F	; 79
 476:	3a 74       	andi	r19, 0x4A	; 74
 478:	28 34       	cpi	r18, 0x48	; 72
 47a:	2c 38       	cpi	r18, 0x8C	; 140
 47c:	29 3d       	cpi	r18, 0xD9	; 217
 47e:	28 30       	cpi	r18, 0x08	; 8
 480:	2c 37       	cpi	r18, 0x7C	; 124
 482:	29 00       	.word	0x0029	; ????
 484:	69 6e       	ori	r22, 0xE9	; 233
 486:	74 70       	andi	r23, 0x04	; 4
 488:	74 72       	andi	r23, 0x24	; 36
 48a:	5f 74       	andi	r21, 0x4F	; 79
 48c:	3a 74       	andi	r19, 0x4A	; 74
 48e:	28 34       	cpi	r18, 0x48	; 72
 490:	2c 39       	cpi	r18, 0x9C	; 156
 492:	29 3d       	cpi	r18, 0xD9	; 217
 494:	28 34       	cpi	r18, 0x48	; 72
 496:	2c 33       	cpi	r18, 0x3C	; 60
 498:	29 00       	.word	0x0029	; ????
 49a:	75 69       	ori	r23, 0x95	; 149
 49c:	6e 74       	andi	r22, 0x4E	; 78
 49e:	70 74       	andi	r23, 0x40	; 64
 4a0:	72 5f       	subi	r23, 0xF2	; 242
 4a2:	74 3a       	cpi	r23, 0xA4	; 164
 4a4:	74 28       	or	r7, r4
 4a6:	34 2c       	mov	r3, r4
 4a8:	31 30       	cpi	r19, 0x01	; 1
 4aa:	29 3d       	cpi	r18, 0xD9	; 217
 4ac:	28 34       	cpi	r18, 0x48	; 72
 4ae:	2c 34       	cpi	r18, 0x4C	; 76
 4b0:	29 00       	.word	0x0029	; ????
 4b2:	69 6e       	ori	r22, 0xE9	; 233
 4b4:	74 5f       	subi	r23, 0xF4	; 244
 4b6:	6c 65       	ori	r22, 0x5C	; 92
 4b8:	61 73       	andi	r22, 0x31	; 49
 4ba:	74 38       	cpi	r23, 0x84	; 132
 4bc:	5f 74       	andi	r21, 0x4F	; 79
 4be:	3a 74       	andi	r19, 0x4A	; 74
 4c0:	28 34       	cpi	r18, 0x48	; 72
 4c2:	2c 31       	cpi	r18, 0x1C	; 28
 4c4:	31 29       	or	r19, r1
 4c6:	3d 28       	or	r3, r13
 4c8:	34 2c       	mov	r3, r4
 4ca:	31 29       	or	r19, r1
 4cc:	00 75       	andi	r16, 0x50	; 80
 4ce:	69 6e       	ori	r22, 0xE9	; 233
 4d0:	74 5f       	subi	r23, 0xF4	; 244
 4d2:	6c 65       	ori	r22, 0x5C	; 92
 4d4:	61 73       	andi	r22, 0x31	; 49
 4d6:	74 38       	cpi	r23, 0x84	; 132
 4d8:	5f 74       	andi	r21, 0x4F	; 79
 4da:	3a 74       	andi	r19, 0x4A	; 74
 4dc:	28 34       	cpi	r18, 0x48	; 72
 4de:	2c 31       	cpi	r18, 0x1C	; 28
 4e0:	32 29       	or	r19, r2
 4e2:	3d 28       	or	r3, r13
 4e4:	34 2c       	mov	r3, r4
 4e6:	32 29       	or	r19, r2
 4e8:	00 69       	ori	r16, 0x90	; 144
 4ea:	6e 74       	andi	r22, 0x4E	; 78
 4ec:	5f 6c       	ori	r21, 0xCF	; 207
 4ee:	65 61       	ori	r22, 0x15	; 21
 4f0:	73 74       	andi	r23, 0x43	; 67
 4f2:	31 36       	cpi	r19, 0x61	; 97
 4f4:	5f 74       	andi	r21, 0x4F	; 79
 4f6:	3a 74       	andi	r19, 0x4A	; 74
 4f8:	28 34       	cpi	r18, 0x48	; 72
 4fa:	2c 31       	cpi	r18, 0x1C	; 28
 4fc:	33 29       	or	r19, r3
 4fe:	3d 28       	or	r3, r13
 500:	34 2c       	mov	r3, r4
 502:	33 29       	or	r19, r3
 504:	00 75       	andi	r16, 0x50	; 80
 506:	69 6e       	ori	r22, 0xE9	; 233
 508:	74 5f       	subi	r23, 0xF4	; 244
 50a:	6c 65       	ori	r22, 0x5C	; 92
 50c:	61 73       	andi	r22, 0x31	; 49
 50e:	74 31       	cpi	r23, 0x14	; 20
 510:	36 5f       	subi	r19, 0xF6	; 246
 512:	74 3a       	cpi	r23, 0xA4	; 164
 514:	74 28       	or	r7, r4
 516:	34 2c       	mov	r3, r4
 518:	31 34       	cpi	r19, 0x41	; 65
 51a:	29 3d       	cpi	r18, 0xD9	; 217
 51c:	28 34       	cpi	r18, 0x48	; 72
 51e:	2c 34       	cpi	r18, 0x4C	; 76
 520:	29 00       	.word	0x0029	; ????
 522:	69 6e       	ori	r22, 0xE9	; 233
 524:	74 5f       	subi	r23, 0xF4	; 244
 526:	6c 65       	ori	r22, 0x5C	; 92
 528:	61 73       	andi	r22, 0x31	; 49
 52a:	74 33       	cpi	r23, 0x34	; 52
 52c:	32 5f       	subi	r19, 0xF2	; 242
 52e:	74 3a       	cpi	r23, 0xA4	; 164
 530:	74 28       	or	r7, r4
 532:	34 2c       	mov	r3, r4
 534:	31 35       	cpi	r19, 0x51	; 81
 536:	29 3d       	cpi	r18, 0xD9	; 217
 538:	28 34       	cpi	r18, 0x48	; 72
 53a:	2c 35       	cpi	r18, 0x5C	; 92
 53c:	29 00       	.word	0x0029	; ????
 53e:	75 69       	ori	r23, 0x95	; 149
 540:	6e 74       	andi	r22, 0x4E	; 78
 542:	5f 6c       	ori	r21, 0xCF	; 207
 544:	65 61       	ori	r22, 0x15	; 21
 546:	73 74       	andi	r23, 0x43	; 67
 548:	33 32       	cpi	r19, 0x23	; 35
 54a:	5f 74       	andi	r21, 0x4F	; 79
 54c:	3a 74       	andi	r19, 0x4A	; 74
 54e:	28 34       	cpi	r18, 0x48	; 72
 550:	2c 31       	cpi	r18, 0x1C	; 28
 552:	36 29       	or	r19, r6
 554:	3d 28       	or	r3, r13
 556:	34 2c       	mov	r3, r4
 558:	36 29       	or	r19, r6
 55a:	00 69       	ori	r16, 0x90	; 144
 55c:	6e 74       	andi	r22, 0x4E	; 78
 55e:	5f 6c       	ori	r21, 0xCF	; 207
 560:	65 61       	ori	r22, 0x15	; 21
 562:	73 74       	andi	r23, 0x43	; 67
 564:	36 34       	cpi	r19, 0x46	; 70
 566:	5f 74       	andi	r21, 0x4F	; 79
 568:	3a 74       	andi	r19, 0x4A	; 74
 56a:	28 34       	cpi	r18, 0x48	; 72
 56c:	2c 31       	cpi	r18, 0x1C	; 28
 56e:	37 29       	or	r19, r7
 570:	3d 28       	or	r3, r13
 572:	34 2c       	mov	r3, r4
 574:	37 29       	or	r19, r7
 576:	00 75       	andi	r16, 0x50	; 80
 578:	69 6e       	ori	r22, 0xE9	; 233
 57a:	74 5f       	subi	r23, 0xF4	; 244
 57c:	6c 65       	ori	r22, 0x5C	; 92
 57e:	61 73       	andi	r22, 0x31	; 49
 580:	74 36       	cpi	r23, 0x64	; 100
 582:	34 5f       	subi	r19, 0xF4	; 244
 584:	74 3a       	cpi	r23, 0xA4	; 164
 586:	74 28       	or	r7, r4
 588:	34 2c       	mov	r3, r4
 58a:	31 38       	cpi	r19, 0x81	; 129
 58c:	29 3d       	cpi	r18, 0xD9	; 217
 58e:	28 34       	cpi	r18, 0x48	; 72
 590:	2c 38       	cpi	r18, 0x8C	; 140
 592:	29 00       	.word	0x0029	; ????
 594:	69 6e       	ori	r22, 0xE9	; 233
 596:	74 5f       	subi	r23, 0xF4	; 244
 598:	66 61       	ori	r22, 0x16	; 22
 59a:	73 74       	andi	r23, 0x43	; 67
 59c:	38 5f       	subi	r19, 0xF8	; 248
 59e:	74 3a       	cpi	r23, 0xA4	; 164
 5a0:	74 28       	or	r7, r4
 5a2:	34 2c       	mov	r3, r4
 5a4:	31 39       	cpi	r19, 0x91	; 145
 5a6:	29 3d       	cpi	r18, 0xD9	; 217
 5a8:	28 34       	cpi	r18, 0x48	; 72
 5aa:	2c 31       	cpi	r18, 0x1C	; 28
 5ac:	29 00       	.word	0x0029	; ????
 5ae:	75 69       	ori	r23, 0x95	; 149
 5b0:	6e 74       	andi	r22, 0x4E	; 78
 5b2:	5f 66       	ori	r21, 0x6F	; 111
 5b4:	61 73       	andi	r22, 0x31	; 49
 5b6:	74 38       	cpi	r23, 0x84	; 132
 5b8:	5f 74       	andi	r21, 0x4F	; 79
 5ba:	3a 74       	andi	r19, 0x4A	; 74
 5bc:	28 34       	cpi	r18, 0x48	; 72
 5be:	2c 32       	cpi	r18, 0x2C	; 44
 5c0:	30 29       	or	r19, r0
 5c2:	3d 28       	or	r3, r13
 5c4:	34 2c       	mov	r3, r4
 5c6:	32 29       	or	r19, r2
 5c8:	00 69       	ori	r16, 0x90	; 144
 5ca:	6e 74       	andi	r22, 0x4E	; 78
 5cc:	5f 66       	ori	r21, 0x6F	; 111
 5ce:	61 73       	andi	r22, 0x31	; 49
 5d0:	74 31       	cpi	r23, 0x14	; 20
 5d2:	36 5f       	subi	r19, 0xF6	; 246
 5d4:	74 3a       	cpi	r23, 0xA4	; 164
 5d6:	74 28       	or	r7, r4
 5d8:	34 2c       	mov	r3, r4
 5da:	32 31       	cpi	r19, 0x12	; 18
 5dc:	29 3d       	cpi	r18, 0xD9	; 217
 5de:	28 34       	cpi	r18, 0x48	; 72
 5e0:	2c 33       	cpi	r18, 0x3C	; 60
 5e2:	29 00       	.word	0x0029	; ????
 5e4:	75 69       	ori	r23, 0x95	; 149
 5e6:	6e 74       	andi	r22, 0x4E	; 78
 5e8:	5f 66       	ori	r21, 0x6F	; 111
 5ea:	61 73       	andi	r22, 0x31	; 49
 5ec:	74 31       	cpi	r23, 0x14	; 20
 5ee:	36 5f       	subi	r19, 0xF6	; 246
 5f0:	74 3a       	cpi	r23, 0xA4	; 164
 5f2:	74 28       	or	r7, r4
 5f4:	34 2c       	mov	r3, r4
 5f6:	32 32       	cpi	r19, 0x22	; 34
 5f8:	29 3d       	cpi	r18, 0xD9	; 217
 5fa:	28 34       	cpi	r18, 0x48	; 72
 5fc:	2c 34       	cpi	r18, 0x4C	; 76
 5fe:	29 00       	.word	0x0029	; ????
 600:	69 6e       	ori	r22, 0xE9	; 233
 602:	74 5f       	subi	r23, 0xF4	; 244
 604:	66 61       	ori	r22, 0x16	; 22
 606:	73 74       	andi	r23, 0x43	; 67
 608:	33 32       	cpi	r19, 0x23	; 35
 60a:	5f 74       	andi	r21, 0x4F	; 79
 60c:	3a 74       	andi	r19, 0x4A	; 74
 60e:	28 34       	cpi	r18, 0x48	; 72
 610:	2c 32       	cpi	r18, 0x2C	; 44
 612:	33 29       	or	r19, r3
 614:	3d 28       	or	r3, r13
 616:	34 2c       	mov	r3, r4
 618:	35 29       	or	r19, r5
 61a:	00 75       	andi	r16, 0x50	; 80
 61c:	69 6e       	ori	r22, 0xE9	; 233
 61e:	74 5f       	subi	r23, 0xF4	; 244
 620:	66 61       	ori	r22, 0x16	; 22
 622:	73 74       	andi	r23, 0x43	; 67
 624:	33 32       	cpi	r19, 0x23	; 35
 626:	5f 74       	andi	r21, 0x4F	; 79
 628:	3a 74       	andi	r19, 0x4A	; 74
 62a:	28 34       	cpi	r18, 0x48	; 72
 62c:	2c 32       	cpi	r18, 0x2C	; 44
 62e:	34 29       	or	r19, r4
 630:	3d 28       	or	r3, r13
 632:	34 2c       	mov	r3, r4
 634:	36 29       	or	r19, r6
 636:	00 69       	ori	r16, 0x90	; 144
 638:	6e 74       	andi	r22, 0x4E	; 78
 63a:	5f 66       	ori	r21, 0x6F	; 111
 63c:	61 73       	andi	r22, 0x31	; 49
 63e:	74 36       	cpi	r23, 0x64	; 100
 640:	34 5f       	subi	r19, 0xF4	; 244
 642:	74 3a       	cpi	r23, 0xA4	; 164
 644:	74 28       	or	r7, r4
 646:	34 2c       	mov	r3, r4
 648:	32 35       	cpi	r19, 0x52	; 82
 64a:	29 3d       	cpi	r18, 0xD9	; 217
 64c:	28 34       	cpi	r18, 0x48	; 72
 64e:	2c 37       	cpi	r18, 0x7C	; 124
 650:	29 00       	.word	0x0029	; ????
 652:	75 69       	ori	r23, 0x95	; 149
 654:	6e 74       	andi	r22, 0x4E	; 78
 656:	5f 66       	ori	r21, 0x6F	; 111
 658:	61 73       	andi	r22, 0x31	; 49
 65a:	74 36       	cpi	r23, 0x64	; 100
 65c:	34 5f       	subi	r19, 0xF4	; 244
 65e:	74 3a       	cpi	r23, 0xA4	; 164
 660:	74 28       	or	r7, r4
 662:	34 2c       	mov	r3, r4
 664:	32 36       	cpi	r19, 0x62	; 98
 666:	29 3d       	cpi	r18, 0xD9	; 217
 668:	28 34       	cpi	r18, 0x48	; 72
 66a:	2c 38       	cpi	r18, 0x8C	; 140
 66c:	29 00       	.word	0x0029	; ????
 66e:	69 6e       	ori	r22, 0xE9	; 233
 670:	74 6d       	ori	r23, 0xD4	; 212
 672:	61 78       	andi	r22, 0x81	; 129
 674:	5f 74       	andi	r21, 0x4F	; 79
 676:	3a 74       	andi	r19, 0x4A	; 74
 678:	28 34       	cpi	r18, 0x48	; 72
 67a:	2c 32       	cpi	r18, 0x2C	; 44
 67c:	37 29       	or	r19, r7
 67e:	3d 28       	or	r3, r13
 680:	34 2c       	mov	r3, r4
 682:	37 29       	or	r19, r7
 684:	00 75       	andi	r16, 0x50	; 80
 686:	69 6e       	ori	r22, 0xE9	; 233
 688:	74 6d       	ori	r23, 0xD4	; 212
 68a:	61 78       	andi	r22, 0x81	; 129
 68c:	5f 74       	andi	r21, 0x4F	; 79
 68e:	3a 74       	andi	r19, 0x4A	; 74
 690:	28 34       	cpi	r18, 0x48	; 72
 692:	2c 32       	cpi	r18, 0x2C	; 44
 694:	38 29       	or	r19, r8
 696:	3d 28       	or	r3, r13
 698:	34 2c       	mov	r3, r4
 69a:	38 29       	or	r19, r8
 69c:	00 69       	ori	r16, 0x90	; 144
 69e:	6e 74       	andi	r22, 0x4E	; 78
 6a0:	5f 66       	ori	r21, 0x6F	; 111
 6a2:	61 72       	andi	r22, 0x21	; 33
 6a4:	70 74       	andi	r23, 0x40	; 64
 6a6:	72 5f       	subi	r23, 0xF2	; 242
 6a8:	74 3a       	cpi	r23, 0xA4	; 164
 6aa:	74 28       	or	r7, r4
 6ac:	32 2c       	mov	r3, r2
 6ae:	31 29       	or	r19, r1
 6b0:	3d 28       	or	r3, r13
 6b2:	34 2c       	mov	r3, r4
 6b4:	35 29       	or	r19, r5
 6b6:	00 75       	andi	r16, 0x50	; 80
 6b8:	69 6e       	ori	r22, 0xE9	; 233
 6ba:	74 5f       	subi	r23, 0xF4	; 244
 6bc:	66 61       	ori	r22, 0x16	; 22
 6be:	72 70       	andi	r23, 0x02	; 2
 6c0:	74 72       	andi	r23, 0x24	; 36
 6c2:	5f 74       	andi	r21, 0x4F	; 79
 6c4:	3a 74       	andi	r19, 0x4A	; 74
 6c6:	28 32       	cpi	r18, 0x28	; 40
 6c8:	2c 32       	cpi	r18, 0x2C	; 44
 6ca:	29 3d       	cpi	r18, 0xD9	; 217
 6cc:	28 34       	cpi	r18, 0x48	; 72
 6ce:	2c 36       	cpi	r18, 0x6C	; 108
 6d0:	29 00       	.word	0x0029	; ????
 6d2:	2f 75       	andi	r18, 0x5F	; 95
 6d4:	73 72       	andi	r23, 0x23	; 35
 6d6:	2f 6c       	ori	r18, 0xCF	; 207
 6d8:	69 62       	ori	r22, 0x29	; 41
 6da:	2f 67       	ori	r18, 0x7F	; 127
 6dc:	63 63       	ori	r22, 0x33	; 51
 6de:	2f 61       	ori	r18, 0x1F	; 31
 6e0:	76 72       	andi	r23, 0x26	; 38
 6e2:	2f 34       	cpi	r18, 0x4F	; 79
 6e4:	2e 37       	cpi	r18, 0x7E	; 126
 6e6:	2e 32       	cpi	r18, 0x2E	; 46
 6e8:	2f 69       	ori	r18, 0x9F	; 159
 6ea:	6e 63       	ori	r22, 0x3E	; 62
 6ec:	6c 75       	andi	r22, 0x5C	; 92
 6ee:	64 65       	ori	r22, 0x54	; 84
 6f0:	2f 73       	andi	r18, 0x3F	; 63
 6f2:	74 64       	ori	r23, 0x44	; 68
 6f4:	61 72       	andi	r22, 0x21	; 33
 6f6:	67 2e       	mov	r6, r23
 6f8:	68 00       	.word	0x0068	; ????
 6fa:	5f 5f       	subi	r21, 0xFF	; 255
 6fc:	67 6e       	ori	r22, 0xE7	; 231
 6fe:	75 63       	ori	r23, 0x35	; 53
 700:	5f 76       	andi	r21, 0x6F	; 111
 702:	61 5f       	subi	r22, 0xF1	; 241
 704:	6c 69       	ori	r22, 0x9C	; 156
 706:	73 74       	andi	r23, 0x43	; 67
 708:	3a 74       	andi	r19, 0x4A	; 74
 70a:	28 35       	cpi	r18, 0x58	; 88
 70c:	2c 31       	cpi	r18, 0x1C	; 28
 70e:	29 3d       	cpi	r18, 0xD9	; 217
 710:	28 35       	cpi	r18, 0x58	; 88
 712:	2c 32       	cpi	r18, 0x2C	; 44
 714:	29 3d       	cpi	r18, 0xD9	; 217
 716:	2a 28       	or	r2, r10
 718:	30 2c       	mov	r3, r0
 71a:	31 35       	cpi	r19, 0x51	; 81
 71c:	29 00       	.word	0x0029	; ????
 71e:	76 61       	ori	r23, 0x16	; 22
 720:	5f 6c       	ori	r21, 0xCF	; 207
 722:	69 73       	andi	r22, 0x39	; 57
 724:	74 3a       	cpi	r23, 0xA4	; 164
 726:	74 28       	or	r7, r4
 728:	35 2c       	mov	r3, r5
 72a:	33 29       	or	r19, r3
 72c:	3d 28       	or	r3, r13
 72e:	35 2c       	mov	r3, r5
 730:	31 29       	or	r19, r1
 732:	00 2f       	mov	r16, r16
 734:	75 73       	andi	r23, 0x35	; 53
 736:	72 2f       	mov	r23, r18
 738:	6c 69       	ori	r22, 0x9C	; 156
 73a:	62 2f       	mov	r22, r18
 73c:	67 63       	ori	r22, 0x37	; 55
 73e:	63 2f       	mov	r22, r19
 740:	61 76       	andi	r22, 0x61	; 97
 742:	72 2f       	mov	r23, r18
 744:	34 2e       	mov	r3, r20
 746:	37 2e       	mov	r3, r23
 748:	32 2f       	mov	r19, r18
 74a:	69 6e       	ori	r22, 0xE9	; 233
 74c:	63 6c       	ori	r22, 0xC3	; 195
 74e:	75 64       	ori	r23, 0x45	; 69
 750:	65 2f       	mov	r22, r21
 752:	73 74       	andi	r23, 0x43	; 67
 754:	64 64       	ori	r22, 0x44	; 68
 756:	65 66       	ori	r22, 0x65	; 101
 758:	2e 68       	ori	r18, 0x8E	; 142
 75a:	00 73       	andi	r16, 0x30	; 48
 75c:	69 7a       	andi	r22, 0xA9	; 169
 75e:	65 5f       	subi	r22, 0xF5	; 245
 760:	74 3a       	cpi	r23, 0xA4	; 164
 762:	74 28       	or	r7, r4
 764:	36 2c       	mov	r3, r6
 766:	31 29       	or	r19, r1
 768:	3d 28       	or	r3, r13
 76a:	30 2c       	mov	r3, r0
 76c:	34 29       	or	r19, r4
 76e:	00 5f       	subi	r16, 0xF0	; 240
 770:	5f 66       	ori	r21, 0x6F	; 111
 772:	69 6c       	ori	r22, 0xC9	; 201
 774:	65 3a       	cpi	r22, 0xA5	; 165
 776:	54 28       	or	r5, r4
 778:	31 2c       	mov	r3, r1
 77a:	31 29       	or	r19, r1
 77c:	3d 73       	andi	r19, 0x3D	; 61
 77e:	31 34       	cpi	r19, 0x41	; 65
 780:	62 75       	andi	r22, 0x52	; 82
 782:	66 3a       	cpi	r22, 0xA6	; 166
 784:	28 31       	cpi	r18, 0x18	; 24
 786:	2c 32       	cpi	r18, 0x2C	; 44
 788:	29 3d       	cpi	r18, 0xD9	; 217
 78a:	2a 28       	or	r2, r10
 78c:	30 2c       	mov	r3, r0
 78e:	32 29       	or	r19, r2
 790:	2c 30       	cpi	r18, 0x0C	; 12
 792:	2c 31       	cpi	r18, 0x1C	; 28
 794:	36 3b       	cpi	r19, 0xB6	; 182
 796:	75 6e       	ori	r23, 0xE5	; 229
 798:	67 65       	ori	r22, 0x57	; 87
 79a:	74 3a       	cpi	r23, 0xA4	; 164
 79c:	28 30       	cpi	r18, 0x08	; 8
 79e:	2c 31       	cpi	r18, 0x1C	; 28
 7a0:	31 29       	or	r19, r1
 7a2:	2c 31       	cpi	r18, 0x1C	; 28
 7a4:	36 2c       	mov	r3, r6
 7a6:	38 3b       	cpi	r19, 0xB8	; 184
 7a8:	66 6c       	ori	r22, 0xC6	; 198
 7aa:	61 67       	ori	r22, 0x71	; 113
 7ac:	73 3a       	cpi	r23, 0xA3	; 163
 7ae:	28 34       	cpi	r18, 0x48	; 72
 7b0:	2c 32       	cpi	r18, 0x2C	; 44
 7b2:	29 2c       	mov	r2, r9
 7b4:	32 34       	cpi	r19, 0x42	; 66
 7b6:	2c 38       	cpi	r18, 0x8C	; 140
 7b8:	3b 73       	andi	r19, 0x3B	; 59
 7ba:	69 7a       	andi	r22, 0xA9	; 169
 7bc:	65 3a       	cpi	r22, 0xA5	; 165
 7be:	28 30       	cpi	r18, 0x08	; 8
 7c0:	2c 31       	cpi	r18, 0x1C	; 28
 7c2:	29 2c       	mov	r2, r9
 7c4:	33 32       	cpi	r19, 0x23	; 35
 7c6:	2c 31       	cpi	r18, 0x1C	; 28
 7c8:	36 3b       	cpi	r19, 0xB6	; 182
 7ca:	6c 65       	ori	r22, 0x5C	; 92
 7cc:	6e 3a       	cpi	r22, 0xAE	; 174
 7ce:	28 30       	cpi	r18, 0x08	; 8
 7d0:	2c 31       	cpi	r18, 0x1C	; 28
 7d2:	29 2c       	mov	r2, r9
 7d4:	34 38       	cpi	r19, 0x84	; 132
 7d6:	2c 31       	cpi	r18, 0x1C	; 28
 7d8:	36 3b       	cpi	r19, 0xB6	; 182
 7da:	70 75       	andi	r23, 0x50	; 80
 7dc:	74 3a       	cpi	r23, 0xA4	; 164
 7de:	28 31       	cpi	r18, 0x18	; 24
 7e0:	2c 33       	cpi	r18, 0x3C	; 60
 7e2:	29 3d       	cpi	r18, 0xD9	; 217
 7e4:	2a 28       	or	r2, r10
 7e6:	31 2c       	mov	r3, r1
 7e8:	34 29       	or	r19, r4
 7ea:	3d 66       	ori	r19, 0x6D	; 109
 7ec:	28 30       	cpi	r18, 0x08	; 8
 7ee:	2c 31       	cpi	r18, 0x1C	; 28
 7f0:	29 2c       	mov	r2, r9
 7f2:	36 34       	cpi	r19, 0x46	; 70
 7f4:	2c 31       	cpi	r18, 0x1C	; 28
 7f6:	36 3b       	cpi	r19, 0xB6	; 182
 7f8:	67 65       	ori	r22, 0x57	; 87
 7fa:	74 3a       	cpi	r23, 0xA4	; 164
 7fc:	28 31       	cpi	r18, 0x18	; 24
 7fe:	2c 35       	cpi	r18, 0x5C	; 92
 800:	29 3d       	cpi	r18, 0xD9	; 217
 802:	2a 28       	or	r2, r10
 804:	31 2c       	mov	r3, r1
 806:	36 29       	or	r19, r6
 808:	3d 66       	ori	r19, 0x6D	; 109
 80a:	28 30       	cpi	r18, 0x08	; 8
 80c:	2c 31       	cpi	r18, 0x1C	; 28
 80e:	29 2c       	mov	r2, r9
 810:	38 30       	cpi	r19, 0x08	; 8
 812:	2c 31       	cpi	r18, 0x1C	; 28
 814:	36 3b       	cpi	r19, 0xB6	; 182
 816:	75 64       	ori	r23, 0x45	; 69
 818:	61 74       	andi	r22, 0x41	; 65
 81a:	61 3a       	cpi	r22, 0xA1	; 161
 81c:	28 31       	cpi	r18, 0x18	; 24
 81e:	2c 37       	cpi	r18, 0x7C	; 124
 820:	29 3d       	cpi	r18, 0xD9	; 217
 822:	2a 28       	or	r2, r10
 824:	30 2c       	mov	r3, r0
 826:	31 35       	cpi	r19, 0x51	; 81
 828:	29 2c       	mov	r2, r9
 82a:	39 36       	cpi	r19, 0x69	; 105
 82c:	2c 31       	cpi	r18, 0x1C	; 28
 82e:	36 3b       	cpi	r19, 0xB6	; 182
 830:	3b 00       	.word	0x003b	; ????
 832:	2f 75       	andi	r18, 0x5F	; 95
 834:	73 72       	andi	r23, 0x23	; 35
 836:	2f 6c       	ori	r18, 0xCF	; 207
 838:	69 62       	ori	r22, 0x29	; 41
 83a:	2f 67       	ori	r18, 0x7F	; 127
 83c:	63 63       	ori	r22, 0x33	; 51
 83e:	2f 61       	ori	r18, 0x1F	; 31
 840:	76 72       	andi	r23, 0x26	; 38
 842:	2f 34       	cpi	r18, 0x4F	; 79
 844:	2e 37       	cpi	r18, 0x7E	; 126
 846:	2e 32       	cpi	r18, 0x2E	; 46
 848:	2f 2e       	mov	r2, r31
 84a:	2e 2f       	mov	r18, r30
 84c:	2e 2e       	mov	r2, r30
 84e:	2f 2e       	mov	r2, r31
 850:	2e 2f       	mov	r18, r30
 852:	61 76       	andi	r22, 0x61	; 97
 854:	72 2f       	mov	r23, r18
 856:	69 6e       	ori	r22, 0xE9	; 233
 858:	63 6c       	ori	r22, 0xC3	; 195
 85a:	75 64       	ori	r23, 0x45	; 69
 85c:	65 2f       	mov	r22, r21
 85e:	61 76       	andi	r22, 0x61	; 97
 860:	72 2f       	mov	r23, r18
 862:	69 6f       	ori	r22, 0xF9	; 249
 864:	2e 68       	ori	r18, 0x8E	; 142
 866:	00 2f       	mov	r16, r16
 868:	75 73       	andi	r23, 0x35	; 53
 86a:	72 2f       	mov	r23, r18
 86c:	6c 69       	ori	r22, 0x9C	; 156
 86e:	62 2f       	mov	r22, r18
 870:	67 63       	ori	r22, 0x37	; 55
 872:	63 2f       	mov	r22, r19
 874:	61 76       	andi	r22, 0x61	; 97
 876:	72 2f       	mov	r23, r18
 878:	34 2e       	mov	r3, r20
 87a:	37 2e       	mov	r3, r23
 87c:	32 2f       	mov	r19, r18
 87e:	2e 2e       	mov	r2, r30
 880:	2f 2e       	mov	r2, r31
 882:	2e 2f       	mov	r18, r30
 884:	2e 2e       	mov	r2, r30
 886:	2f 61       	ori	r18, 0x1F	; 31
 888:	76 72       	andi	r23, 0x26	; 38
 88a:	2f 69       	ori	r18, 0x9F	; 159
 88c:	6e 63       	ori	r22, 0x3E	; 62
 88e:	6c 75       	andi	r22, 0x5C	; 92
 890:	64 65       	ori	r22, 0x54	; 84
 892:	2f 61       	ori	r18, 0x1F	; 31
 894:	76 72       	andi	r23, 0x26	; 38
 896:	2f 66       	ori	r18, 0x6F	; 111
 898:	75 73       	andi	r23, 0x35	; 53
 89a:	65 2e       	mov	r6, r21
 89c:	68 00       	.word	0x0068	; ????
 89e:	5f 5f       	subi	r21, 0xFF	; 255
 8a0:	66 75       	andi	r22, 0x56	; 86
 8a2:	73 65       	ori	r23, 0x53	; 83
 8a4:	5f 74       	andi	r21, 0x4F	; 79
 8a6:	3a 74       	andi	r19, 0x4A	; 74
 8a8:	28 38       	cpi	r18, 0x88	; 136
 8aa:	2c 31       	cpi	r18, 0x1C	; 28
 8ac:	29 3d       	cpi	r18, 0xD9	; 217
 8ae:	28 38       	cpi	r18, 0x88	; 136
 8b0:	2c 32       	cpi	r18, 0x2C	; 44
 8b2:	29 3d       	cpi	r18, 0xD9	; 217
 8b4:	73 33       	cpi	r23, 0x33	; 51
 8b6:	6c 6f       	ori	r22, 0xFC	; 252
 8b8:	77 3a       	cpi	r23, 0xA7	; 167
 8ba:	28 30       	cpi	r18, 0x08	; 8
 8bc:	2c 31       	cpi	r18, 0x1C	; 28
 8be:	31 29       	or	r19, r1
 8c0:	2c 30       	cpi	r18, 0x0C	; 12
 8c2:	2c 38       	cpi	r18, 0x8C	; 140
 8c4:	3b 68       	ori	r19, 0x8B	; 139
 8c6:	69 67       	ori	r22, 0x79	; 121
 8c8:	68 3a       	cpi	r22, 0xA8	; 168
 8ca:	28 30       	cpi	r18, 0x08	; 8
 8cc:	2c 31       	cpi	r18, 0x1C	; 28
 8ce:	31 29       	or	r19, r1
 8d0:	2c 38       	cpi	r18, 0x8C	; 140
 8d2:	2c 38       	cpi	r18, 0x8C	; 140
 8d4:	3b 65       	ori	r19, 0x5B	; 91
 8d6:	78 74       	andi	r23, 0x48	; 72
 8d8:	65 6e       	ori	r22, 0xE5	; 229
 8da:	64 65       	ori	r22, 0x54	; 84
 8dc:	64 3a       	cpi	r22, 0xA4	; 164
 8de:	28 30       	cpi	r18, 0x08	; 8
 8e0:	2c 31       	cpi	r18, 0x1C	; 28
 8e2:	31 29       	or	r19, r1
 8e4:	2c 31       	cpi	r18, 0x1C	; 28
 8e6:	36 2c       	mov	r3, r6
 8e8:	38 3b       	cpi	r19, 0xB8	; 184
 8ea:	3b 00       	.word	0x003b	; ????
 8ec:	73 65       	ori	r23, 0x53	; 83
 8ee:	72 69       	ori	r23, 0x92	; 146
 8f0:	61 6c       	ori	r22, 0xC1	; 193
 8f2:	5f 69       	ori	r21, 0x9F	; 159
 8f4:	6e 69       	ori	r22, 0x9E	; 158
 8f6:	74 3a       	cpi	r23, 0xA4	; 164
 8f8:	46 28       	or	r4, r6
 8fa:	30 2c       	mov	r3, r0
 8fc:	31 35       	cpi	r19, 0x51	; 81
 8fe:	29 00       	.word	0x0029	; ????
 900:	77 72       	andi	r23, 0x27	; 39
 902:	69 74       	andi	r22, 0x49	; 73
 904:	65 5f       	subi	r22, 0xF5	; 245
 906:	62 79       	andi	r22, 0x92	; 146
 908:	74 65       	ori	r23, 0x54	; 84
 90a:	3a 46       	sbci	r19, 0x6A	; 106
 90c:	28 30       	cpi	r18, 0x08	; 8
 90e:	2c 31       	cpi	r18, 0x1C	; 28
 910:	35 29       	or	r19, r5
 912:	00 63       	ori	r16, 0x30	; 48
 914:	3a 50       	subi	r19, 0x0A	; 10
 916:	28 30       	cpi	r18, 0x08	; 8
 918:	2c 31       	cpi	r18, 0x1C	; 28
 91a:	31 29       	or	r19, r1
 91c:	00 73       	andi	r16, 0x30	; 48
 91e:	65 72       	andi	r22, 0x25	; 37
 920:	69 61       	ori	r22, 0x19	; 25
 922:	6c 5f       	subi	r22, 0xFC	; 252
 924:	69 6e       	ori	r22, 0xE9	; 233
 926:	69 74       	andi	r22, 0x49	; 73
 928:	69 61       	ori	r22, 0x19	; 25
 92a:	6c 69       	ori	r22, 0x9C	; 156
 92c:	7a 65       	ori	r23, 0x5A	; 90
 92e:	64 3a       	cpi	r22, 0xA4	; 164
 930:	53 28       	or	r5, r3
 932:	30 2c       	mov	r3, r0
 934:	32 29       	or	r19, r2
 936:	00 72       	andi	r16, 0x20	; 32
 938:	65 61       	ori	r22, 0x15	; 21
 93a:	64 2e       	mov	r6, r20
 93c:	63 00       	.word	0x0063	; ????
 93e:	72 65       	ori	r23, 0x52	; 82
 940:	61 64       	ori	r22, 0x41	; 65
 942:	5f 62       	ori	r21, 0x2F	; 47
 944:	79 74       	andi	r23, 0x49	; 73
 946:	65 3a       	cpi	r22, 0xA5	; 165
 948:	46 28       	or	r4, r6
 94a:	30 2c       	mov	r3, r0
 94c:	31 31       	cpi	r19, 0x11	; 17
 94e:	29 00       	.word	0x0029	; ????
 950:	74 65       	ori	r23, 0x54	; 84
 952:	73 74       	andi	r23, 0x43	; 67
 954:	5f 72       	andi	r21, 0x2F	; 47
 956:	65 61       	ori	r22, 0x15	; 21
 958:	64 2e       	mov	r6, r20
 95a:	63 00       	.word	0x0063	; ????
 95c:	6d 61       	ori	r22, 0x1D	; 29
 95e:	69 6e       	ori	r22, 0xE9	; 233
 960:	3a 46       	sbci	r19, 0x6A	; 106
 962:	28 30       	cpi	r18, 0x08	; 8
 964:	2c 31       	cpi	r18, 0x1C	; 28
 966:	29 00       	.word	0x0029	; ????

Disassembly of section .comment:

00000000 <.comment>:
   0:	47 43       	sbci	r20, 0x37	; 55
   2:	43 3a       	cpi	r20, 0xA3	; 163
   4:	20 28       	or	r2, r0
   6:	47 4e       	sbci	r20, 0xE7	; 231
   8:	55 29       	or	r21, r5
   a:	20 34       	cpi	r18, 0x40	; 64
   c:	2e 37       	cpi	r18, 0x7E	; 126
   e:	2e 32       	cpi	r18, 0x2E	; 46
	...
